
rtarget:     file format elf64-x86-64


Disassembly of section .init:

0000000000400bb0 <_init>:
  400bb0:	48 83 ec 08          	sub    $0x8,%rsp
  400bb4:	48 8b 05 3d 44 20 00 	mov    0x20443d(%rip),%rax        # 604ff8 <__gmon_start__>
  400bbb:	48 85 c0             	test   %rax,%rax
  400bbe:	74 05                	je     400bc5 <_init+0x15>
  400bc0:	e8 2b 02 00 00       	callq  400df0 <.plt.got>
  400bc5:	48 83 c4 08          	add    $0x8,%rsp
  400bc9:	c3                   	retq   

Disassembly of section .plt:

0000000000400bd0 <.plt>:
  400bd0:	ff 35 32 44 20 00    	pushq  0x204432(%rip)        # 605008 <_GLOBAL_OFFSET_TABLE_+0x8>
  400bd6:	ff 25 34 44 20 00    	jmpq   *0x204434(%rip)        # 605010 <_GLOBAL_OFFSET_TABLE_+0x10>
  400bdc:	0f 1f 40 00          	nopl   0x0(%rax)

0000000000400be0 <strcasecmp@plt>:
  400be0:	ff 25 32 44 20 00    	jmpq   *0x204432(%rip)        # 605018 <strcasecmp@GLIBC_2.2.5>
  400be6:	68 00 00 00 00       	pushq  $0x0
  400beb:	e9 e0 ff ff ff       	jmpq   400bd0 <.plt>

0000000000400bf0 <__errno_location@plt>:
  400bf0:	ff 25 2a 44 20 00    	jmpq   *0x20442a(%rip)        # 605020 <__errno_location@GLIBC_2.2.5>
  400bf6:	68 01 00 00 00       	pushq  $0x1
  400bfb:	e9 d0 ff ff ff       	jmpq   400bd0 <.plt>

0000000000400c00 <srandom@plt>:
  400c00:	ff 25 22 44 20 00    	jmpq   *0x204422(%rip)        # 605028 <srandom@GLIBC_2.2.5>
  400c06:	68 02 00 00 00       	pushq  $0x2
  400c0b:	e9 c0 ff ff ff       	jmpq   400bd0 <.plt>

0000000000400c10 <strncmp@plt>:
  400c10:	ff 25 1a 44 20 00    	jmpq   *0x20441a(%rip)        # 605030 <strncmp@GLIBC_2.2.5>
  400c16:	68 03 00 00 00       	pushq  $0x3
  400c1b:	e9 b0 ff ff ff       	jmpq   400bd0 <.plt>

0000000000400c20 <strcpy@plt>:
  400c20:	ff 25 12 44 20 00    	jmpq   *0x204412(%rip)        # 605038 <strcpy@GLIBC_2.2.5>
  400c26:	68 04 00 00 00       	pushq  $0x4
  400c2b:	e9 a0 ff ff ff       	jmpq   400bd0 <.plt>

0000000000400c30 <puts@plt>:
  400c30:	ff 25 0a 44 20 00    	jmpq   *0x20440a(%rip)        # 605040 <puts@GLIBC_2.2.5>
  400c36:	68 05 00 00 00       	pushq  $0x5
  400c3b:	e9 90 ff ff ff       	jmpq   400bd0 <.plt>

0000000000400c40 <write@plt>:
  400c40:	ff 25 02 44 20 00    	jmpq   *0x204402(%rip)        # 605048 <write@GLIBC_2.2.5>
  400c46:	68 06 00 00 00       	pushq  $0x6
  400c4b:	e9 80 ff ff ff       	jmpq   400bd0 <.plt>

0000000000400c50 <mmap@plt>:
  400c50:	ff 25 fa 43 20 00    	jmpq   *0x2043fa(%rip)        # 605050 <mmap@GLIBC_2.2.5>
  400c56:	68 07 00 00 00       	pushq  $0x7
  400c5b:	e9 70 ff ff ff       	jmpq   400bd0 <.plt>

0000000000400c60 <printf@plt>:
  400c60:	ff 25 f2 43 20 00    	jmpq   *0x2043f2(%rip)        # 605058 <printf@GLIBC_2.2.5>
  400c66:	68 08 00 00 00       	pushq  $0x8
  400c6b:	e9 60 ff ff ff       	jmpq   400bd0 <.plt>

0000000000400c70 <memset@plt>:
  400c70:	ff 25 ea 43 20 00    	jmpq   *0x2043ea(%rip)        # 605060 <memset@GLIBC_2.2.5>
  400c76:	68 09 00 00 00       	pushq  $0x9
  400c7b:	e9 50 ff ff ff       	jmpq   400bd0 <.plt>

0000000000400c80 <alarm@plt>:
  400c80:	ff 25 e2 43 20 00    	jmpq   *0x2043e2(%rip)        # 605068 <alarm@GLIBC_2.2.5>
  400c86:	68 0a 00 00 00       	pushq  $0xa
  400c8b:	e9 40 ff ff ff       	jmpq   400bd0 <.plt>

0000000000400c90 <close@plt>:
  400c90:	ff 25 da 43 20 00    	jmpq   *0x2043da(%rip)        # 605070 <close@GLIBC_2.2.5>
  400c96:	68 0b 00 00 00       	pushq  $0xb
  400c9b:	e9 30 ff ff ff       	jmpq   400bd0 <.plt>

0000000000400ca0 <read@plt>:
  400ca0:	ff 25 d2 43 20 00    	jmpq   *0x2043d2(%rip)        # 605078 <read@GLIBC_2.2.5>
  400ca6:	68 0c 00 00 00       	pushq  $0xc
  400cab:	e9 20 ff ff ff       	jmpq   400bd0 <.plt>

0000000000400cb0 <__libc_start_main@plt>:
  400cb0:	ff 25 ca 43 20 00    	jmpq   *0x2043ca(%rip)        # 605080 <__libc_start_main@GLIBC_2.2.5>
  400cb6:	68 0d 00 00 00       	pushq  $0xd
  400cbb:	e9 10 ff ff ff       	jmpq   400bd0 <.plt>

0000000000400cc0 <signal@plt>:
  400cc0:	ff 25 c2 43 20 00    	jmpq   *0x2043c2(%rip)        # 605088 <signal@GLIBC_2.2.5>
  400cc6:	68 0e 00 00 00       	pushq  $0xe
  400ccb:	e9 00 ff ff ff       	jmpq   400bd0 <.plt>

0000000000400cd0 <gethostbyname@plt>:
  400cd0:	ff 25 ba 43 20 00    	jmpq   *0x2043ba(%rip)        # 605090 <gethostbyname@GLIBC_2.2.5>
  400cd6:	68 0f 00 00 00       	pushq  $0xf
  400cdb:	e9 f0 fe ff ff       	jmpq   400bd0 <.plt>

0000000000400ce0 <fprintf@plt>:
  400ce0:	ff 25 b2 43 20 00    	jmpq   *0x2043b2(%rip)        # 605098 <fprintf@GLIBC_2.2.5>
  400ce6:	68 10 00 00 00       	pushq  $0x10
  400ceb:	e9 e0 fe ff ff       	jmpq   400bd0 <.plt>

0000000000400cf0 <strtol@plt>:
  400cf0:	ff 25 aa 43 20 00    	jmpq   *0x2043aa(%rip)        # 6050a0 <strtol@GLIBC_2.2.5>
  400cf6:	68 11 00 00 00       	pushq  $0x11
  400cfb:	e9 d0 fe ff ff       	jmpq   400bd0 <.plt>

0000000000400d00 <memcpy@plt>:
  400d00:	ff 25 a2 43 20 00    	jmpq   *0x2043a2(%rip)        # 6050a8 <memcpy@GLIBC_2.14>
  400d06:	68 12 00 00 00       	pushq  $0x12
  400d0b:	e9 c0 fe ff ff       	jmpq   400bd0 <.plt>

0000000000400d10 <time@plt>:
  400d10:	ff 25 9a 43 20 00    	jmpq   *0x20439a(%rip)        # 6050b0 <time@GLIBC_2.2.5>
  400d16:	68 13 00 00 00       	pushq  $0x13
  400d1b:	e9 b0 fe ff ff       	jmpq   400bd0 <.plt>

0000000000400d20 <random@plt>:
  400d20:	ff 25 92 43 20 00    	jmpq   *0x204392(%rip)        # 6050b8 <random@GLIBC_2.2.5>
  400d26:	68 14 00 00 00       	pushq  $0x14
  400d2b:	e9 a0 fe ff ff       	jmpq   400bd0 <.plt>

0000000000400d30 <_IO_getc@plt>:
  400d30:	ff 25 8a 43 20 00    	jmpq   *0x20438a(%rip)        # 6050c0 <_IO_getc@GLIBC_2.2.5>
  400d36:	68 15 00 00 00       	pushq  $0x15
  400d3b:	e9 90 fe ff ff       	jmpq   400bd0 <.plt>

0000000000400d40 <__isoc99_sscanf@plt>:
  400d40:	ff 25 82 43 20 00    	jmpq   *0x204382(%rip)        # 6050c8 <__isoc99_sscanf@GLIBC_2.7>
  400d46:	68 16 00 00 00       	pushq  $0x16
  400d4b:	e9 80 fe ff ff       	jmpq   400bd0 <.plt>

0000000000400d50 <munmap@plt>:
  400d50:	ff 25 7a 43 20 00    	jmpq   *0x20437a(%rip)        # 6050d0 <munmap@GLIBC_2.2.5>
  400d56:	68 17 00 00 00       	pushq  $0x17
  400d5b:	e9 70 fe ff ff       	jmpq   400bd0 <.plt>

0000000000400d60 <bcopy@plt>:
  400d60:	ff 25 72 43 20 00    	jmpq   *0x204372(%rip)        # 6050d8 <bcopy@GLIBC_2.2.5>
  400d66:	68 18 00 00 00       	pushq  $0x18
  400d6b:	e9 60 fe ff ff       	jmpq   400bd0 <.plt>

0000000000400d70 <fopen@plt>:
  400d70:	ff 25 6a 43 20 00    	jmpq   *0x20436a(%rip)        # 6050e0 <fopen@GLIBC_2.2.5>
  400d76:	68 19 00 00 00       	pushq  $0x19
  400d7b:	e9 50 fe ff ff       	jmpq   400bd0 <.plt>

0000000000400d80 <getopt@plt>:
  400d80:	ff 25 62 43 20 00    	jmpq   *0x204362(%rip)        # 6050e8 <getopt@GLIBC_2.2.5>
  400d86:	68 1a 00 00 00       	pushq  $0x1a
  400d8b:	e9 40 fe ff ff       	jmpq   400bd0 <.plt>

0000000000400d90 <strtoul@plt>:
  400d90:	ff 25 5a 43 20 00    	jmpq   *0x20435a(%rip)        # 6050f0 <strtoul@GLIBC_2.2.5>
  400d96:	68 1b 00 00 00       	pushq  $0x1b
  400d9b:	e9 30 fe ff ff       	jmpq   400bd0 <.plt>

0000000000400da0 <gethostname@plt>:
  400da0:	ff 25 52 43 20 00    	jmpq   *0x204352(%rip)        # 6050f8 <gethostname@GLIBC_2.2.5>
  400da6:	68 1c 00 00 00       	pushq  $0x1c
  400dab:	e9 20 fe ff ff       	jmpq   400bd0 <.plt>

0000000000400db0 <sprintf@plt>:
  400db0:	ff 25 4a 43 20 00    	jmpq   *0x20434a(%rip)        # 605100 <sprintf@GLIBC_2.2.5>
  400db6:	68 1d 00 00 00       	pushq  $0x1d
  400dbb:	e9 10 fe ff ff       	jmpq   400bd0 <.plt>

0000000000400dc0 <exit@plt>:
  400dc0:	ff 25 42 43 20 00    	jmpq   *0x204342(%rip)        # 605108 <exit@GLIBC_2.2.5>
  400dc6:	68 1e 00 00 00       	pushq  $0x1e
  400dcb:	e9 00 fe ff ff       	jmpq   400bd0 <.plt>

0000000000400dd0 <connect@plt>:
  400dd0:	ff 25 3a 43 20 00    	jmpq   *0x20433a(%rip)        # 605110 <connect@GLIBC_2.2.5>
  400dd6:	68 1f 00 00 00       	pushq  $0x1f
  400ddb:	e9 f0 fd ff ff       	jmpq   400bd0 <.plt>

0000000000400de0 <socket@plt>:
  400de0:	ff 25 32 43 20 00    	jmpq   *0x204332(%rip)        # 605118 <socket@GLIBC_2.2.5>
  400de6:	68 20 00 00 00       	pushq  $0x20
  400deb:	e9 e0 fd ff ff       	jmpq   400bd0 <.plt>

Disassembly of section .plt.got:

0000000000400df0 <.plt.got>:
  400df0:	ff 25 02 42 20 00    	jmpq   *0x204202(%rip)        # 604ff8 <__gmon_start__>
  400df6:	66 90                	xchg   %ax,%ax

Disassembly of section .text:

0000000000400e00 <_start>:
  400e00:	31 ed                	xor    %ebp,%ebp
  400e02:	49 89 d1             	mov    %rdx,%r9
  400e05:	5e                   	pop    %rsi
  400e06:	48 89 e2             	mov    %rsp,%rdx
  400e09:	48 83 e4 f0          	and    $0xfffffffffffffff0,%rsp
  400e0d:	50                   	push   %rax
  400e0e:	54                   	push   %rsp
  400e0f:	49 c7 c0 f0 2c 40 00 	mov    $0x402cf0,%r8
  400e16:	48 c7 c1 80 2c 40 00 	mov    $0x402c80,%rcx
  400e1d:	48 c7 c7 c0 10 40 00 	mov    $0x4010c0,%rdi
  400e24:	e8 87 fe ff ff       	callq  400cb0 <__libc_start_main@plt>
  400e29:	f4                   	hlt    
  400e2a:	66 0f 1f 44 00 00    	nopw   0x0(%rax,%rax,1)

0000000000400e30 <deregister_tm_clones>:
  400e30:	b8 97 54 60 00       	mov    $0x605497,%eax
  400e35:	55                   	push   %rbp
  400e36:	48 2d 90 54 60 00    	sub    $0x605490,%rax
  400e3c:	48 83 f8 0e          	cmp    $0xe,%rax
  400e40:	48 89 e5             	mov    %rsp,%rbp
  400e43:	77 02                	ja     400e47 <deregister_tm_clones+0x17>
  400e45:	5d                   	pop    %rbp
  400e46:	c3                   	retq   
  400e47:	b8 00 00 00 00       	mov    $0x0,%eax
  400e4c:	48 85 c0             	test   %rax,%rax
  400e4f:	74 f4                	je     400e45 <deregister_tm_clones+0x15>
  400e51:	5d                   	pop    %rbp
  400e52:	bf 90 54 60 00       	mov    $0x605490,%edi
  400e57:	ff e0                	jmpq   *%rax
  400e59:	0f 1f 80 00 00 00 00 	nopl   0x0(%rax)

0000000000400e60 <register_tm_clones>:
  400e60:	b8 90 54 60 00       	mov    $0x605490,%eax
  400e65:	55                   	push   %rbp
  400e66:	48 2d 90 54 60 00    	sub    $0x605490,%rax
  400e6c:	48 c1 f8 03          	sar    $0x3,%rax
  400e70:	48 89 e5             	mov    %rsp,%rbp
  400e73:	48 89 c2             	mov    %rax,%rdx
  400e76:	48 c1 ea 3f          	shr    $0x3f,%rdx
  400e7a:	48 01 d0             	add    %rdx,%rax
  400e7d:	48 d1 f8             	sar    %rax
  400e80:	75 02                	jne    400e84 <register_tm_clones+0x24>
  400e82:	5d                   	pop    %rbp
  400e83:	c3                   	retq   
  400e84:	ba 00 00 00 00       	mov    $0x0,%edx
  400e89:	48 85 d2             	test   %rdx,%rdx
  400e8c:	74 f4                	je     400e82 <register_tm_clones+0x22>
  400e8e:	5d                   	pop    %rbp
  400e8f:	48 89 c6             	mov    %rax,%rsi
  400e92:	bf 90 54 60 00       	mov    $0x605490,%edi
  400e97:	ff e2                	jmpq   *%rdx
  400e99:	0f 1f 80 00 00 00 00 	nopl   0x0(%rax)

0000000000400ea0 <__do_global_dtors_aux>:
  400ea0:	80 3d 11 46 20 00 00 	cmpb   $0x0,0x204611(%rip)        # 6054b8 <completed.6355>
  400ea7:	75 11                	jne    400eba <__do_global_dtors_aux+0x1a>
  400ea9:	55                   	push   %rbp
  400eaa:	48 89 e5             	mov    %rsp,%rbp
  400ead:	e8 7e ff ff ff       	callq  400e30 <deregister_tm_clones>
  400eb2:	5d                   	pop    %rbp
  400eb3:	c6 05 fe 45 20 00 01 	movb   $0x1,0x2045fe(%rip)        # 6054b8 <completed.6355>
  400eba:	f3 c3                	repz retq 
  400ebc:	0f 1f 40 00          	nopl   0x0(%rax)

0000000000400ec0 <frame_dummy>:
  400ec0:	48 83 3d 58 3f 20 00 	cmpq   $0x0,0x203f58(%rip)        # 604e20 <__JCR_END__>
  400ec7:	00 
  400ec8:	74 1e                	je     400ee8 <frame_dummy+0x28>
  400eca:	b8 00 00 00 00       	mov    $0x0,%eax
  400ecf:	48 85 c0             	test   %rax,%rax
  400ed2:	74 14                	je     400ee8 <frame_dummy+0x28>
  400ed4:	55                   	push   %rbp
  400ed5:	bf 20 4e 60 00       	mov    $0x604e20,%edi
  400eda:	48 89 e5             	mov    %rsp,%rbp
  400edd:	ff d0                	callq  *%rax
  400edf:	5d                   	pop    %rbp
  400ee0:	e9 7b ff ff ff       	jmpq   400e60 <register_tm_clones>
  400ee5:	0f 1f 00             	nopl   (%rax)
  400ee8:	e9 73 ff ff ff       	jmpq   400e60 <register_tm_clones>
  400eed:	0f 1f 00             	nopl   (%rax)

0000000000400ef0 <usage>:
  400ef0:	48 83 ec 08          	sub    $0x8,%rsp
  400ef4:	48 89 fe             	mov    %rdi,%rsi
  400ef7:	83 3d ea 45 20 00 00 	cmpl   $0x0,0x2045ea(%rip)        # 6054e8 <is_checker>
  400efe:	74 39                	je     400f39 <usage+0x49>
  400f00:	bf 10 2d 40 00       	mov    $0x402d10,%edi
  400f05:	b8 00 00 00 00       	mov    $0x0,%eax
  400f0a:	e8 51 fd ff ff       	callq  400c60 <printf@plt>
  400f0f:	bf 48 2d 40 00       	mov    $0x402d48,%edi
  400f14:	e8 17 fd ff ff       	callq  400c30 <puts@plt>
  400f19:	bf c0 2e 40 00       	mov    $0x402ec0,%edi
  400f1e:	e8 0d fd ff ff       	callq  400c30 <puts@plt>
  400f23:	bf 70 2d 40 00       	mov    $0x402d70,%edi
  400f28:	e8 03 fd ff ff       	callq  400c30 <puts@plt>
  400f2d:	bf da 2e 40 00       	mov    $0x402eda,%edi
  400f32:	e8 f9 fc ff ff       	callq  400c30 <puts@plt>
  400f37:	eb 2d                	jmp    400f66 <usage+0x76>
  400f39:	bf f6 2e 40 00       	mov    $0x402ef6,%edi
  400f3e:	b8 00 00 00 00       	mov    $0x0,%eax
  400f43:	e8 18 fd ff ff       	callq  400c60 <printf@plt>
  400f48:	bf 98 2d 40 00       	mov    $0x402d98,%edi
  400f4d:	e8 de fc ff ff       	callq  400c30 <puts@plt>
  400f52:	bf c0 2d 40 00       	mov    $0x402dc0,%edi
  400f57:	e8 d4 fc ff ff       	callq  400c30 <puts@plt>
  400f5c:	bf 14 2f 40 00       	mov    $0x402f14,%edi
  400f61:	e8 ca fc ff ff       	callq  400c30 <puts@plt>
  400f66:	bf 00 00 00 00       	mov    $0x0,%edi
  400f6b:	e8 50 fe ff ff       	callq  400dc0 <exit@plt>

0000000000400f70 <initialize_target>:
  400f70:	55                   	push   %rbp
  400f71:	53                   	push   %rbx
  400f72:	48 81 ec 08 21 00 00 	sub    $0x2108,%rsp
  400f79:	89 f5                	mov    %esi,%ebp
  400f7b:	89 3d 57 45 20 00    	mov    %edi,0x204557(%rip)        # 6054d8 <check_level>
  400f81:	8b 3d c1 41 20 00    	mov    0x2041c1(%rip),%edi        # 605148 <target_id>
  400f87:	e8 c7 1c 00 00       	callq  402c53 <gencookie>
  400f8c:	89 05 52 45 20 00    	mov    %eax,0x204552(%rip)        # 6054e4 <cookie>
  400f92:	89 c7                	mov    %eax,%edi
  400f94:	e8 ba 1c 00 00       	callq  402c53 <gencookie>
  400f99:	89 05 41 45 20 00    	mov    %eax,0x204541(%rip)        # 6054e0 <authkey>
  400f9f:	8b 05 a3 41 20 00    	mov    0x2041a3(%rip),%eax        # 605148 <target_id>
  400fa5:	8d 78 01             	lea    0x1(%rax),%edi
  400fa8:	e8 53 fc ff ff       	callq  400c00 <srandom@plt>
  400fad:	e8 6e fd ff ff       	callq  400d20 <random@plt>
  400fb2:	89 c7                	mov    %eax,%edi
  400fb4:	e8 ca 02 00 00       	callq  401283 <scramble>
  400fb9:	89 c3                	mov    %eax,%ebx
  400fbb:	85 ed                	test   %ebp,%ebp
  400fbd:	74 18                	je     400fd7 <initialize_target+0x67>
  400fbf:	bf 00 00 00 00       	mov    $0x0,%edi
  400fc4:	e8 47 fd ff ff       	callq  400d10 <time@plt>
  400fc9:	89 c7                	mov    %eax,%edi
  400fcb:	e8 30 fc ff ff       	callq  400c00 <srandom@plt>
  400fd0:	e8 4b fd ff ff       	callq  400d20 <random@plt>
  400fd5:	eb 05                	jmp    400fdc <initialize_target+0x6c>
  400fd7:	b8 00 00 00 00       	mov    $0x0,%eax
  400fdc:	01 c3                	add    %eax,%ebx
  400fde:	0f b7 db             	movzwl %bx,%ebx
  400fe1:	8d 04 dd 00 01 00 00 	lea    0x100(,%rbx,8),%eax
  400fe8:	89 c0                	mov    %eax,%eax
  400fea:	48 89 05 8f 44 20 00 	mov    %rax,0x20448f(%rip)        # 605480 <buf_offset>
  400ff1:	c6 05 10 51 20 00 72 	movb   $0x72,0x205110(%rip)        # 606108 <target_prefix>
  400ff8:	83 3d 89 44 20 00 00 	cmpl   $0x0,0x204489(%rip)        # 605488 <notify>
  400fff:	0f 84 b1 00 00 00    	je     4010b6 <initialize_target+0x146>
  401005:	83 3d dc 44 20 00 00 	cmpl   $0x0,0x2044dc(%rip)        # 6054e8 <is_checker>
  40100c:	0f 85 a4 00 00 00    	jne    4010b6 <initialize_target+0x146>
  401012:	be 00 01 00 00       	mov    $0x100,%esi
  401017:	48 89 e7             	mov    %rsp,%rdi
  40101a:	e8 81 fd ff ff       	callq  400da0 <gethostname@plt>
  40101f:	85 c0                	test   %eax,%eax
  401021:	74 25                	je     401048 <initialize_target+0xd8>
  401023:	bf f0 2d 40 00       	mov    $0x402df0,%edi
  401028:	e8 03 fc ff ff       	callq  400c30 <puts@plt>
  40102d:	bf 08 00 00 00       	mov    $0x8,%edi
  401032:	e8 89 fd ff ff       	callq  400dc0 <exit@plt>
  401037:	48 89 e6             	mov    %rsp,%rsi
  40103a:	e8 a1 fb ff ff       	callq  400be0 <strcasecmp@plt>
  40103f:	85 c0                	test   %eax,%eax
  401041:	74 21                	je     401064 <initialize_target+0xf4>
  401043:	83 c3 01             	add    $0x1,%ebx
  401046:	eb 05                	jmp    40104d <initialize_target+0xdd>
  401048:	bb 00 00 00 00       	mov    $0x0,%ebx
  40104d:	48 63 c3             	movslq %ebx,%rax
  401050:	48 8b 3c c5 60 51 60 	mov    0x605160(,%rax,8),%rdi
  401057:	00 
  401058:	48 85 ff             	test   %rdi,%rdi
  40105b:	75 da                	jne    401037 <initialize_target+0xc7>
  40105d:	b8 00 00 00 00       	mov    $0x0,%eax
  401062:	eb 05                	jmp    401069 <initialize_target+0xf9>
  401064:	b8 01 00 00 00       	mov    $0x1,%eax
  401069:	85 c0                	test   %eax,%eax
  40106b:	75 17                	jne    401084 <initialize_target+0x114>
  40106d:	48 89 e6             	mov    %rsp,%rsi
  401070:	bf 28 2e 40 00       	mov    $0x402e28,%edi
  401075:	e8 e6 fb ff ff       	callq  400c60 <printf@plt>
  40107a:	bf 08 00 00 00       	mov    $0x8,%edi
  40107f:	e8 3c fd ff ff       	callq  400dc0 <exit@plt>
  401084:	48 8d bc 24 00 01 00 	lea    0x100(%rsp),%rdi
  40108b:	00 
  40108c:	e8 59 19 00 00       	callq  4029ea <init_driver>
  401091:	85 c0                	test   %eax,%eax
  401093:	79 21                	jns    4010b6 <initialize_target+0x146>
  401095:	48 8d b4 24 00 01 00 	lea    0x100(%rsp),%rsi
  40109c:	00 
  40109d:	bf 68 2e 40 00       	mov    $0x402e68,%edi
  4010a2:	b8 00 00 00 00       	mov    $0x0,%eax
  4010a7:	e8 b4 fb ff ff       	callq  400c60 <printf@plt>
  4010ac:	bf 08 00 00 00       	mov    $0x8,%edi
  4010b1:	e8 0a fd ff ff       	callq  400dc0 <exit@plt>
  4010b6:	48 81 c4 08 21 00 00 	add    $0x2108,%rsp
  4010bd:	5b                   	pop    %rbx
  4010be:	5d                   	pop    %rbp
  4010bf:	c3                   	retq   

00000000004010c0 <main>:
  4010c0:	41 56                	push   %r14
  4010c2:	41 55                	push   %r13
  4010c4:	41 54                	push   %r12
  4010c6:	55                   	push   %rbp
  4010c7:	53                   	push   %rbx
  4010c8:	41 89 fc             	mov    %edi,%r12d
  4010cb:	48 89 f3             	mov    %rsi,%rbx
  4010ce:	be 11 1e 40 00       	mov    $0x401e11,%esi
  4010d3:	bf 0b 00 00 00       	mov    $0xb,%edi
  4010d8:	e8 e3 fb ff ff       	callq  400cc0 <signal@plt>
  4010dd:	be c3 1d 40 00       	mov    $0x401dc3,%esi
  4010e2:	bf 07 00 00 00       	mov    $0x7,%edi
  4010e7:	e8 d4 fb ff ff       	callq  400cc0 <signal@plt>
  4010ec:	be 5f 1e 40 00       	mov    $0x401e5f,%esi
  4010f1:	bf 04 00 00 00       	mov    $0x4,%edi
  4010f6:	e8 c5 fb ff ff       	callq  400cc0 <signal@plt>
  4010fb:	83 3d e6 43 20 00 00 	cmpl   $0x0,0x2043e6(%rip)        # 6054e8 <is_checker>
  401102:	74 20                	je     401124 <main+0x64>
  401104:	be ad 1e 40 00       	mov    $0x401ead,%esi
  401109:	bf 0e 00 00 00       	mov    $0xe,%edi
  40110e:	e8 ad fb ff ff       	callq  400cc0 <signal@plt>
  401113:	bf 05 00 00 00       	mov    $0x5,%edi
  401118:	e8 63 fb ff ff       	callq  400c80 <alarm@plt>
  40111d:	bd 32 2f 40 00       	mov    $0x402f32,%ebp
  401122:	eb 05                	jmp    401129 <main+0x69>
  401124:	bd 2d 2f 40 00       	mov    $0x402f2d,%ebp
  401129:	48 8b 05 70 43 20 00 	mov    0x204370(%rip),%rax        # 6054a0 <stdin@@GLIBC_2.2.5>
  401130:	48 89 05 99 43 20 00 	mov    %rax,0x204399(%rip)        # 6054d0 <infile>
  401137:	41 bd 00 00 00 00    	mov    $0x0,%r13d
  40113d:	41 be 00 00 00 00    	mov    $0x0,%r14d
  401143:	e9 b9 00 00 00       	jmpq   401201 <main+0x141>
  401148:	83 e8 61             	sub    $0x61,%eax
  40114b:	3c 10                	cmp    $0x10,%al
  40114d:	0f 87 93 00 00 00    	ja     4011e6 <main+0x126>
  401153:	0f b6 c0             	movzbl %al,%eax
  401156:	ff 24 c5 78 2f 40 00 	jmpq   *0x402f78(,%rax,8)
  40115d:	48 8b 3b             	mov    (%rbx),%rdi
  401160:	e8 8b fd ff ff       	callq  400ef0 <usage>
  401165:	be 65 34 40 00       	mov    $0x403465,%esi
  40116a:	48 8b 3d 37 43 20 00 	mov    0x204337(%rip),%rdi        # 6054a8 <optarg@@GLIBC_2.2.5>
  401171:	e8 fa fb ff ff       	callq  400d70 <fopen@plt>
  401176:	48 89 05 53 43 20 00 	mov    %rax,0x204353(%rip)        # 6054d0 <infile>
  40117d:	48 85 c0             	test   %rax,%rax
  401180:	75 7f                	jne    401201 <main+0x141>
  401182:	48 8b 15 1f 43 20 00 	mov    0x20431f(%rip),%rdx        # 6054a8 <optarg@@GLIBC_2.2.5>
  401189:	be 3a 2f 40 00       	mov    $0x402f3a,%esi
  40118e:	48 8b 3d 1b 43 20 00 	mov    0x20431b(%rip),%rdi        # 6054b0 <stderr@@GLIBC_2.2.5>
  401195:	e8 46 fb ff ff       	callq  400ce0 <fprintf@plt>
  40119a:	b8 01 00 00 00       	mov    $0x1,%eax
  40119f:	e9 d6 00 00 00       	jmpq   40127a <main+0x1ba>
  4011a4:	ba 10 00 00 00       	mov    $0x10,%edx
  4011a9:	be 00 00 00 00       	mov    $0x0,%esi
  4011ae:	48 8b 3d f3 42 20 00 	mov    0x2042f3(%rip),%rdi        # 6054a8 <optarg@@GLIBC_2.2.5>
  4011b5:	e8 d6 fb ff ff       	callq  400d90 <strtoul@plt>
  4011ba:	41 89 c6             	mov    %eax,%r14d
  4011bd:	eb 42                	jmp    401201 <main+0x141>
  4011bf:	ba 0a 00 00 00       	mov    $0xa,%edx
  4011c4:	be 00 00 00 00       	mov    $0x0,%esi
  4011c9:	48 8b 3d d8 42 20 00 	mov    0x2042d8(%rip),%rdi        # 6054a8 <optarg@@GLIBC_2.2.5>
  4011d0:	e8 1b fb ff ff       	callq  400cf0 <strtol@plt>
  4011d5:	41 89 c5             	mov    %eax,%r13d
  4011d8:	eb 27                	jmp    401201 <main+0x141>
  4011da:	c7 05 a4 42 20 00 00 	movl   $0x0,0x2042a4(%rip)        # 605488 <notify>
  4011e1:	00 00 00 
  4011e4:	eb 1b                	jmp    401201 <main+0x141>
  4011e6:	40 0f be f6          	movsbl %sil,%esi
  4011ea:	bf 57 2f 40 00       	mov    $0x402f57,%edi
  4011ef:	b8 00 00 00 00       	mov    $0x0,%eax
  4011f4:	e8 67 fa ff ff       	callq  400c60 <printf@plt>
  4011f9:	48 8b 3b             	mov    (%rbx),%rdi
  4011fc:	e8 ef fc ff ff       	callq  400ef0 <usage>
  401201:	48 89 ea             	mov    %rbp,%rdx
  401204:	48 89 de             	mov    %rbx,%rsi
  401207:	44 89 e7             	mov    %r12d,%edi
  40120a:	e8 71 fb ff ff       	callq  400d80 <getopt@plt>
  40120f:	89 c6                	mov    %eax,%esi
  401211:	3c ff                	cmp    $0xff,%al
  401213:	0f 85 2f ff ff ff    	jne    401148 <main+0x88>
  401219:	be 01 00 00 00       	mov    $0x1,%esi
  40121e:	44 89 ef             	mov    %r13d,%edi
  401221:	e8 4a fd ff ff       	callq  400f70 <initialize_target>
  401226:	83 3d bb 42 20 00 00 	cmpl   $0x0,0x2042bb(%rip)        # 6054e8 <is_checker>
  40122d:	74 25                	je     401254 <main+0x194>
  40122f:	44 3b 35 aa 42 20 00 	cmp    0x2042aa(%rip),%r14d        # 6054e0 <authkey>
  401236:	74 1c                	je     401254 <main+0x194>
  401238:	44 89 f6             	mov    %r14d,%esi
  40123b:	bf 90 2e 40 00       	mov    $0x402e90,%edi
  401240:	b8 00 00 00 00       	mov    $0x0,%eax
  401245:	e8 16 fa ff ff       	callq  400c60 <printf@plt>
  40124a:	b8 00 00 00 00       	mov    $0x0,%eax
  40124f:	e8 77 08 00 00       	callq  401acb <check_fail>
  401254:	8b 35 8a 42 20 00    	mov    0x20428a(%rip),%esi        # 6054e4 <cookie>
  40125a:	bf 6a 2f 40 00       	mov    $0x402f6a,%edi
  40125f:	b8 00 00 00 00       	mov    $0x0,%eax
  401264:	e8 f7 f9 ff ff       	callq  400c60 <printf@plt>
  401269:	48 8b 3d 10 42 20 00 	mov    0x204210(%rip),%rdi        # 605480 <buf_offset>
  401270:	e8 86 0c 00 00       	callq  401efb <launch>
  401275:	b8 00 00 00 00       	mov    $0x0,%eax
  40127a:	5b                   	pop    %rbx
  40127b:	5d                   	pop    %rbp
  40127c:	41 5c                	pop    %r12
  40127e:	41 5d                	pop    %r13
  401280:	41 5e                	pop    %r14
  401282:	c3                   	retq   

0000000000401283 <scramble>:
  401283:	b8 00 00 00 00       	mov    $0x0,%eax
  401288:	eb 11                	jmp    40129b <scramble+0x18>
  40128a:	69 c8 34 17 00 00    	imul   $0x1734,%eax,%ecx
  401290:	01 f9                	add    %edi,%ecx
  401292:	89 c2                	mov    %eax,%edx
  401294:	89 4c 94 d0          	mov    %ecx,-0x30(%rsp,%rdx,4)
  401298:	83 c0 01             	add    $0x1,%eax
  40129b:	83 f8 09             	cmp    $0x9,%eax
  40129e:	76 ea                	jbe    40128a <scramble+0x7>
  4012a0:	8b 44 24 d4          	mov    -0x2c(%rsp),%eax
  4012a4:	69 c0 03 c2 00 00    	imul   $0xc203,%eax,%eax
  4012aa:	89 44 24 d4          	mov    %eax,-0x2c(%rsp)
  4012ae:	8b 44 24 d0          	mov    -0x30(%rsp),%eax
  4012b2:	69 c0 3a c3 00 00    	imul   $0xc33a,%eax,%eax
  4012b8:	89 44 24 d0          	mov    %eax,-0x30(%rsp)
  4012bc:	8b 44 24 d8          	mov    -0x28(%rsp),%eax
  4012c0:	69 c0 d9 e2 00 00    	imul   $0xe2d9,%eax,%eax
  4012c6:	89 44 24 d8          	mov    %eax,-0x28(%rsp)
  4012ca:	8b 44 24 f0          	mov    -0x10(%rsp),%eax
  4012ce:	69 c0 c4 6b 00 00    	imul   $0x6bc4,%eax,%eax
  4012d4:	89 44 24 f0          	mov    %eax,-0x10(%rsp)
  4012d8:	8b 44 24 d0          	mov    -0x30(%rsp),%eax
  4012dc:	69 c0 03 e4 00 00    	imul   $0xe403,%eax,%eax
  4012e2:	89 44 24 d0          	mov    %eax,-0x30(%rsp)
  4012e6:	8b 44 24 e4          	mov    -0x1c(%rsp),%eax
  4012ea:	69 c0 ed 00 00 00    	imul   $0xed,%eax,%eax
  4012f0:	89 44 24 e4          	mov    %eax,-0x1c(%rsp)
  4012f4:	8b 44 24 e4          	mov    -0x1c(%rsp),%eax
  4012f8:	69 c0 66 ec 00 00    	imul   $0xec66,%eax,%eax
  4012fe:	89 44 24 e4          	mov    %eax,-0x1c(%rsp)
  401302:	8b 44 24 ec          	mov    -0x14(%rsp),%eax
  401306:	69 c0 53 ac 00 00    	imul   $0xac53,%eax,%eax
  40130c:	89 44 24 ec          	mov    %eax,-0x14(%rsp)
  401310:	8b 44 24 e0          	mov    -0x20(%rsp),%eax
  401314:	69 c0 a0 6e 00 00    	imul   $0x6ea0,%eax,%eax
  40131a:	89 44 24 e0          	mov    %eax,-0x20(%rsp)
  40131e:	8b 44 24 f0          	mov    -0x10(%rsp),%eax
  401322:	69 c0 f2 12 00 00    	imul   $0x12f2,%eax,%eax
  401328:	89 44 24 f0          	mov    %eax,-0x10(%rsp)
  40132c:	8b 44 24 dc          	mov    -0x24(%rsp),%eax
  401330:	69 c0 5f 7a 00 00    	imul   $0x7a5f,%eax,%eax
  401336:	89 44 24 dc          	mov    %eax,-0x24(%rsp)
  40133a:	8b 44 24 ec          	mov    -0x14(%rsp),%eax
  40133e:	69 c0 2e 2a 00 00    	imul   $0x2a2e,%eax,%eax
  401344:	89 44 24 ec          	mov    %eax,-0x14(%rsp)
  401348:	8b 44 24 e8          	mov    -0x18(%rsp),%eax
  40134c:	69 c0 3a 71 00 00    	imul   $0x713a,%eax,%eax
  401352:	89 44 24 e8          	mov    %eax,-0x18(%rsp)
  401356:	8b 44 24 f4          	mov    -0xc(%rsp),%eax
  40135a:	69 c0 49 14 00 00    	imul   $0x1449,%eax,%eax
  401360:	89 44 24 f4          	mov    %eax,-0xc(%rsp)
  401364:	8b 44 24 dc          	mov    -0x24(%rsp),%eax
  401368:	69 c0 89 b5 00 00    	imul   $0xb589,%eax,%eax
  40136e:	89 44 24 dc          	mov    %eax,-0x24(%rsp)
  401372:	8b 44 24 e0          	mov    -0x20(%rsp),%eax
  401376:	69 c0 49 f9 00 00    	imul   $0xf949,%eax,%eax
  40137c:	89 44 24 e0          	mov    %eax,-0x20(%rsp)
  401380:	8b 44 24 e0          	mov    -0x20(%rsp),%eax
  401384:	69 c0 19 c3 00 00    	imul   $0xc319,%eax,%eax
  40138a:	89 44 24 e0          	mov    %eax,-0x20(%rsp)
  40138e:	8b 44 24 f0          	mov    -0x10(%rsp),%eax
  401392:	69 c0 62 97 00 00    	imul   $0x9762,%eax,%eax
  401398:	89 44 24 f0          	mov    %eax,-0x10(%rsp)
  40139c:	8b 44 24 e8          	mov    -0x18(%rsp),%eax
  4013a0:	69 c0 be c7 00 00    	imul   $0xc7be,%eax,%eax
  4013a6:	89 44 24 e8          	mov    %eax,-0x18(%rsp)
  4013aa:	8b 44 24 e0          	mov    -0x20(%rsp),%eax
  4013ae:	69 c0 7c f9 00 00    	imul   $0xf97c,%eax,%eax
  4013b4:	89 44 24 e0          	mov    %eax,-0x20(%rsp)
  4013b8:	8b 44 24 f4          	mov    -0xc(%rsp),%eax
  4013bc:	69 c0 d5 01 00 00    	imul   $0x1d5,%eax,%eax
  4013c2:	89 44 24 f4          	mov    %eax,-0xc(%rsp)
  4013c6:	8b 44 24 d4          	mov    -0x2c(%rsp),%eax
  4013ca:	69 c0 ff c4 00 00    	imul   $0xc4ff,%eax,%eax
  4013d0:	89 44 24 d4          	mov    %eax,-0x2c(%rsp)
  4013d4:	8b 44 24 d8          	mov    -0x28(%rsp),%eax
  4013d8:	69 c0 b3 bb 00 00    	imul   $0xbbb3,%eax,%eax
  4013de:	89 44 24 d8          	mov    %eax,-0x28(%rsp)
  4013e2:	8b 44 24 dc          	mov    -0x24(%rsp),%eax
  4013e6:	69 c0 86 14 00 00    	imul   $0x1486,%eax,%eax
  4013ec:	89 44 24 dc          	mov    %eax,-0x24(%rsp)
  4013f0:	8b 44 24 e0          	mov    -0x20(%rsp),%eax
  4013f4:	69 c0 2d f2 00 00    	imul   $0xf22d,%eax,%eax
  4013fa:	89 44 24 e0          	mov    %eax,-0x20(%rsp)
  4013fe:	8b 44 24 e0          	mov    -0x20(%rsp),%eax
  401402:	69 c0 75 6a 00 00    	imul   $0x6a75,%eax,%eax
  401408:	89 44 24 e0          	mov    %eax,-0x20(%rsp)
  40140c:	8b 44 24 e0          	mov    -0x20(%rsp),%eax
  401410:	69 c0 9d 27 00 00    	imul   $0x279d,%eax,%eax
  401416:	89 44 24 e0          	mov    %eax,-0x20(%rsp)
  40141a:	8b 44 24 d4          	mov    -0x2c(%rsp),%eax
  40141e:	69 c0 db 2a 00 00    	imul   $0x2adb,%eax,%eax
  401424:	89 44 24 d4          	mov    %eax,-0x2c(%rsp)
  401428:	8b 44 24 e8          	mov    -0x18(%rsp),%eax
  40142c:	69 c0 d4 7e 00 00    	imul   $0x7ed4,%eax,%eax
  401432:	89 44 24 e8          	mov    %eax,-0x18(%rsp)
  401436:	8b 44 24 d4          	mov    -0x2c(%rsp),%eax
  40143a:	69 c0 ec 7a 00 00    	imul   $0x7aec,%eax,%eax
  401440:	89 44 24 d4          	mov    %eax,-0x2c(%rsp)
  401444:	8b 44 24 d0          	mov    -0x30(%rsp),%eax
  401448:	69 c0 02 fd 00 00    	imul   $0xfd02,%eax,%eax
  40144e:	89 44 24 d0          	mov    %eax,-0x30(%rsp)
  401452:	8b 44 24 f4          	mov    -0xc(%rsp),%eax
  401456:	69 c0 ea ab 00 00    	imul   $0xabea,%eax,%eax
  40145c:	89 44 24 f4          	mov    %eax,-0xc(%rsp)
  401460:	8b 44 24 d8          	mov    -0x28(%rsp),%eax
  401464:	69 c0 ba 30 00 00    	imul   $0x30ba,%eax,%eax
  40146a:	89 44 24 d8          	mov    %eax,-0x28(%rsp)
  40146e:	8b 44 24 e0          	mov    -0x20(%rsp),%eax
  401472:	69 c0 0d 66 00 00    	imul   $0x660d,%eax,%eax
  401478:	89 44 24 e0          	mov    %eax,-0x20(%rsp)
  40147c:	8b 44 24 f0          	mov    -0x10(%rsp),%eax
  401480:	69 c0 73 46 00 00    	imul   $0x4673,%eax,%eax
  401486:	89 44 24 f0          	mov    %eax,-0x10(%rsp)
  40148a:	8b 44 24 d8          	mov    -0x28(%rsp),%eax
  40148e:	69 c0 3a a4 00 00    	imul   $0xa43a,%eax,%eax
  401494:	89 44 24 d8          	mov    %eax,-0x28(%rsp)
  401498:	8b 44 24 d0          	mov    -0x30(%rsp),%eax
  40149c:	69 c0 f3 59 00 00    	imul   $0x59f3,%eax,%eax
  4014a2:	89 44 24 d0          	mov    %eax,-0x30(%rsp)
  4014a6:	8b 44 24 d8          	mov    -0x28(%rsp),%eax
  4014aa:	69 c0 83 36 00 00    	imul   $0x3683,%eax,%eax
  4014b0:	89 44 24 d8          	mov    %eax,-0x28(%rsp)
  4014b4:	8b 44 24 dc          	mov    -0x24(%rsp),%eax
  4014b8:	69 c0 8c da 00 00    	imul   $0xda8c,%eax,%eax
  4014be:	89 44 24 dc          	mov    %eax,-0x24(%rsp)
  4014c2:	8b 44 24 e4          	mov    -0x1c(%rsp),%eax
  4014c6:	69 c0 f9 3f 00 00    	imul   $0x3ff9,%eax,%eax
  4014cc:	89 44 24 e4          	mov    %eax,-0x1c(%rsp)
  4014d0:	8b 44 24 d4          	mov    -0x2c(%rsp),%eax
  4014d4:	69 c0 81 72 00 00    	imul   $0x7281,%eax,%eax
  4014da:	89 44 24 d4          	mov    %eax,-0x2c(%rsp)
  4014de:	8b 44 24 e8          	mov    -0x18(%rsp),%eax
  4014e2:	69 c0 45 39 00 00    	imul   $0x3945,%eax,%eax
  4014e8:	89 44 24 e8          	mov    %eax,-0x18(%rsp)
  4014ec:	8b 44 24 d0          	mov    -0x30(%rsp),%eax
  4014f0:	69 c0 13 3f 00 00    	imul   $0x3f13,%eax,%eax
  4014f6:	89 44 24 d0          	mov    %eax,-0x30(%rsp)
  4014fa:	8b 44 24 f4          	mov    -0xc(%rsp),%eax
  4014fe:	69 c0 f6 32 00 00    	imul   $0x32f6,%eax,%eax
  401504:	89 44 24 f4          	mov    %eax,-0xc(%rsp)
  401508:	8b 44 24 d8          	mov    -0x28(%rsp),%eax
  40150c:	69 c0 45 a3 00 00    	imul   $0xa345,%eax,%eax
  401512:	89 44 24 d8          	mov    %eax,-0x28(%rsp)
  401516:	8b 44 24 d4          	mov    -0x2c(%rsp),%eax
  40151a:	69 c0 44 f2 00 00    	imul   $0xf244,%eax,%eax
  401520:	89 44 24 d4          	mov    %eax,-0x2c(%rsp)
  401524:	8b 44 24 e8          	mov    -0x18(%rsp),%eax
  401528:	69 c0 18 22 00 00    	imul   $0x2218,%eax,%eax
  40152e:	89 44 24 e8          	mov    %eax,-0x18(%rsp)
  401532:	8b 44 24 f0          	mov    -0x10(%rsp),%eax
  401536:	69 c0 62 60 00 00    	imul   $0x6062,%eax,%eax
  40153c:	89 44 24 f0          	mov    %eax,-0x10(%rsp)
  401540:	8b 44 24 ec          	mov    -0x14(%rsp),%eax
  401544:	69 c0 7b e1 00 00    	imul   $0xe17b,%eax,%eax
  40154a:	89 44 24 ec          	mov    %eax,-0x14(%rsp)
  40154e:	8b 44 24 e0          	mov    -0x20(%rsp),%eax
  401552:	69 c0 4b 4b 00 00    	imul   $0x4b4b,%eax,%eax
  401558:	89 44 24 e0          	mov    %eax,-0x20(%rsp)
  40155c:	8b 44 24 e4          	mov    -0x1c(%rsp),%eax
  401560:	69 c0 f9 25 00 00    	imul   $0x25f9,%eax,%eax
  401566:	89 44 24 e4          	mov    %eax,-0x1c(%rsp)
  40156a:	8b 44 24 e4          	mov    -0x1c(%rsp),%eax
  40156e:	69 c0 36 70 00 00    	imul   $0x7036,%eax,%eax
  401574:	89 44 24 e4          	mov    %eax,-0x1c(%rsp)
  401578:	8b 44 24 d4          	mov    -0x2c(%rsp),%eax
  40157c:	69 c0 bf 58 00 00    	imul   $0x58bf,%eax,%eax
  401582:	89 44 24 d4          	mov    %eax,-0x2c(%rsp)
  401586:	8b 44 24 d0          	mov    -0x30(%rsp),%eax
  40158a:	69 c0 93 95 00 00    	imul   $0x9593,%eax,%eax
  401590:	89 44 24 d0          	mov    %eax,-0x30(%rsp)
  401594:	8b 44 24 ec          	mov    -0x14(%rsp),%eax
  401598:	69 c0 c2 f1 00 00    	imul   $0xf1c2,%eax,%eax
  40159e:	89 44 24 ec          	mov    %eax,-0x14(%rsp)
  4015a2:	8b 44 24 dc          	mov    -0x24(%rsp),%eax
  4015a6:	8d 04 80             	lea    (%rax,%rax,4),%eax
  4015a9:	89 44 24 dc          	mov    %eax,-0x24(%rsp)
  4015ad:	8b 44 24 ec          	mov    -0x14(%rsp),%eax
  4015b1:	69 c0 fc 7f 00 00    	imul   $0x7ffc,%eax,%eax
  4015b7:	89 44 24 ec          	mov    %eax,-0x14(%rsp)
  4015bb:	8b 44 24 e4          	mov    -0x1c(%rsp),%eax
  4015bf:	69 c0 61 fe 00 00    	imul   $0xfe61,%eax,%eax
  4015c5:	89 44 24 e4          	mov    %eax,-0x1c(%rsp)
  4015c9:	8b 44 24 f4          	mov    -0xc(%rsp),%eax
  4015cd:	69 c0 6b 9d 00 00    	imul   $0x9d6b,%eax,%eax
  4015d3:	89 44 24 f4          	mov    %eax,-0xc(%rsp)
  4015d7:	8b 44 24 e8          	mov    -0x18(%rsp),%eax
  4015db:	69 c0 f6 7c 00 00    	imul   $0x7cf6,%eax,%eax
  4015e1:	89 44 24 e8          	mov    %eax,-0x18(%rsp)
  4015e5:	8b 44 24 e0          	mov    -0x20(%rsp),%eax
  4015e9:	69 c0 3a df 00 00    	imul   $0xdf3a,%eax,%eax
  4015ef:	89 44 24 e0          	mov    %eax,-0x20(%rsp)
  4015f3:	8b 44 24 e0          	mov    -0x20(%rsp),%eax
  4015f7:	69 c0 f7 e0 00 00    	imul   $0xe0f7,%eax,%eax
  4015fd:	89 44 24 e0          	mov    %eax,-0x20(%rsp)
  401601:	8b 44 24 ec          	mov    -0x14(%rsp),%eax
  401605:	69 c0 69 0d 00 00    	imul   $0xd69,%eax,%eax
  40160b:	89 44 24 ec          	mov    %eax,-0x14(%rsp)
  40160f:	8b 44 24 e8          	mov    -0x18(%rsp),%eax
  401613:	69 c0 25 54 00 00    	imul   $0x5425,%eax,%eax
  401619:	89 44 24 e8          	mov    %eax,-0x18(%rsp)
  40161d:	8b 44 24 f0          	mov    -0x10(%rsp),%eax
  401621:	69 c0 c9 07 00 00    	imul   $0x7c9,%eax,%eax
  401627:	89 44 24 f0          	mov    %eax,-0x10(%rsp)
  40162b:	8b 44 24 e0          	mov    -0x20(%rsp),%eax
  40162f:	69 c0 d2 16 00 00    	imul   $0x16d2,%eax,%eax
  401635:	89 44 24 e0          	mov    %eax,-0x20(%rsp)
  401639:	8b 44 24 d0          	mov    -0x30(%rsp),%eax
  40163d:	69 c0 f5 8e 00 00    	imul   $0x8ef5,%eax,%eax
  401643:	89 44 24 d0          	mov    %eax,-0x30(%rsp)
  401647:	8b 44 24 d4          	mov    -0x2c(%rsp),%eax
  40164b:	69 c0 af ad 00 00    	imul   $0xadaf,%eax,%eax
  401651:	89 44 24 d4          	mov    %eax,-0x2c(%rsp)
  401655:	8b 44 24 d4          	mov    -0x2c(%rsp),%eax
  401659:	69 c0 c1 2d 00 00    	imul   $0x2dc1,%eax,%eax
  40165f:	89 44 24 d4          	mov    %eax,-0x2c(%rsp)
  401663:	8b 44 24 ec          	mov    -0x14(%rsp),%eax
  401667:	69 c0 01 1b 00 00    	imul   $0x1b01,%eax,%eax
  40166d:	89 44 24 ec          	mov    %eax,-0x14(%rsp)
  401671:	8b 44 24 f0          	mov    -0x10(%rsp),%eax
  401675:	69 c0 d0 18 00 00    	imul   $0x18d0,%eax,%eax
  40167b:	89 44 24 f0          	mov    %eax,-0x10(%rsp)
  40167f:	8b 44 24 d0          	mov    -0x30(%rsp),%eax
  401683:	69 c0 c6 83 00 00    	imul   $0x83c6,%eax,%eax
  401689:	89 44 24 d0          	mov    %eax,-0x30(%rsp)
  40168d:	8b 44 24 f4          	mov    -0xc(%rsp),%eax
  401691:	69 c0 51 54 00 00    	imul   $0x5451,%eax,%eax
  401697:	89 44 24 f4          	mov    %eax,-0xc(%rsp)
  40169b:	8b 44 24 e4          	mov    -0x1c(%rsp),%eax
  40169f:	69 c0 db 57 00 00    	imul   $0x57db,%eax,%eax
  4016a5:	89 44 24 e4          	mov    %eax,-0x1c(%rsp)
  4016a9:	8b 44 24 f4          	mov    -0xc(%rsp),%eax
  4016ad:	69 c0 7f b3 00 00    	imul   $0xb37f,%eax,%eax
  4016b3:	89 44 24 f4          	mov    %eax,-0xc(%rsp)
  4016b7:	8b 44 24 d4          	mov    -0x2c(%rsp),%eax
  4016bb:	69 c0 6d 32 00 00    	imul   $0x326d,%eax,%eax
  4016c1:	89 44 24 d4          	mov    %eax,-0x2c(%rsp)
  4016c5:	8b 44 24 dc          	mov    -0x24(%rsp),%eax
  4016c9:	69 c0 0b 44 00 00    	imul   $0x440b,%eax,%eax
  4016cf:	89 44 24 dc          	mov    %eax,-0x24(%rsp)
  4016d3:	8b 44 24 d0          	mov    -0x30(%rsp),%eax
  4016d7:	69 c0 0b 94 00 00    	imul   $0x940b,%eax,%eax
  4016dd:	89 44 24 d0          	mov    %eax,-0x30(%rsp)
  4016e1:	8b 44 24 d0          	mov    -0x30(%rsp),%eax
  4016e5:	69 c0 be 54 00 00    	imul   $0x54be,%eax,%eax
  4016eb:	89 44 24 d0          	mov    %eax,-0x30(%rsp)
  4016ef:	8b 44 24 f4          	mov    -0xc(%rsp),%eax
  4016f3:	69 c0 58 40 00 00    	imul   $0x4058,%eax,%eax
  4016f9:	89 44 24 f4          	mov    %eax,-0xc(%rsp)
  4016fd:	8b 44 24 d0          	mov    -0x30(%rsp),%eax
  401701:	69 c0 a0 87 00 00    	imul   $0x87a0,%eax,%eax
  401707:	89 44 24 d0          	mov    %eax,-0x30(%rsp)
  40170b:	8b 44 24 e0          	mov    -0x20(%rsp),%eax
  40170f:	69 c0 4a 8a 00 00    	imul   $0x8a4a,%eax,%eax
  401715:	89 44 24 e0          	mov    %eax,-0x20(%rsp)
  401719:	8b 44 24 ec          	mov    -0x14(%rsp),%eax
  40171d:	69 c0 32 de 00 00    	imul   $0xde32,%eax,%eax
  401723:	89 44 24 ec          	mov    %eax,-0x14(%rsp)
  401727:	8b 44 24 dc          	mov    -0x24(%rsp),%eax
  40172b:	69 c0 4b fe 00 00    	imul   $0xfe4b,%eax,%eax
  401731:	89 44 24 dc          	mov    %eax,-0x24(%rsp)
  401735:	8b 44 24 f0          	mov    -0x10(%rsp),%eax
  401739:	69 c0 3c 7b 00 00    	imul   $0x7b3c,%eax,%eax
  40173f:	89 44 24 f0          	mov    %eax,-0x10(%rsp)
  401743:	8b 44 24 d8          	mov    -0x28(%rsp),%eax
  401747:	69 c0 76 2b 00 00    	imul   $0x2b76,%eax,%eax
  40174d:	89 44 24 d8          	mov    %eax,-0x28(%rsp)
  401751:	8b 44 24 d0          	mov    -0x30(%rsp),%eax
  401755:	69 c0 52 34 00 00    	imul   $0x3452,%eax,%eax
  40175b:	89 44 24 d0          	mov    %eax,-0x30(%rsp)
  40175f:	8b 44 24 e8          	mov    -0x18(%rsp),%eax
  401763:	69 c0 d8 2c 00 00    	imul   $0x2cd8,%eax,%eax
  401769:	89 44 24 e8          	mov    %eax,-0x18(%rsp)
  40176d:	8b 44 24 ec          	mov    -0x14(%rsp),%eax
  401771:	69 c0 64 31 00 00    	imul   $0x3164,%eax,%eax
  401777:	89 44 24 ec          	mov    %eax,-0x14(%rsp)
  40177b:	ba 00 00 00 00       	mov    $0x0,%edx
  401780:	b8 00 00 00 00       	mov    $0x0,%eax
  401785:	eb 0b                	jmp    401792 <scramble+0x50f>
  401787:	89 d1                	mov    %edx,%ecx
  401789:	8b 4c 8c d0          	mov    -0x30(%rsp,%rcx,4),%ecx
  40178d:	01 c8                	add    %ecx,%eax
  40178f:	83 c2 01             	add    $0x1,%edx
  401792:	83 fa 09             	cmp    $0x9,%edx
  401795:	76 f0                	jbe    401787 <scramble+0x504>
  401797:	f3 c3                	repz retq 

0000000000401799 <getbuf>:
  401799:	48 83 ec 28          	sub    $0x28,%rsp
  40179d:	48 89 e7             	mov    %rsp,%rdi
  4017a0:	e8 55 03 00 00       	callq  401afa <Gets>
  4017a5:	b8 01 00 00 00       	mov    $0x1,%eax
  4017aa:	48 83 c4 28          	add    $0x28,%rsp
  4017ae:	c3                   	retq   

00000000004017af <touch1>:
  4017af:	48 83 ec 08          	sub    $0x8,%rsp
  4017b3:	c7 05 1f 3d 20 00 01 	movl   $0x1,0x203d1f(%rip)        # 6054dc <vlevel>
  4017ba:	00 00 00 
  4017bd:	bf bb 32 40 00       	mov    $0x4032bb,%edi
  4017c2:	e8 69 f4 ff ff       	callq  400c30 <puts@plt>
  4017c7:	bf 01 00 00 00       	mov    $0x1,%edi
  4017cc:	e8 18 05 00 00       	callq  401ce9 <validate>
  4017d1:	bf 00 00 00 00       	mov    $0x0,%edi
  4017d6:	e8 e5 f5 ff ff       	callq  400dc0 <exit@plt>

00000000004017db <touch2>:
  4017db:	48 83 ec 08          	sub    $0x8,%rsp
  4017df:	89 fe                	mov    %edi,%esi
  4017e1:	c7 05 f1 3c 20 00 02 	movl   $0x2,0x203cf1(%rip)        # 6054dc <vlevel>
  4017e8:	00 00 00 
  4017eb:	3b 3d f3 3c 20 00    	cmp    0x203cf3(%rip),%edi        # 6054e4 <cookie>
  4017f1:	75 1b                	jne    40180e <touch2+0x33>
  4017f3:	bf e0 32 40 00       	mov    $0x4032e0,%edi
  4017f8:	b8 00 00 00 00       	mov    $0x0,%eax
  4017fd:	e8 5e f4 ff ff       	callq  400c60 <printf@plt>
  401802:	bf 02 00 00 00       	mov    $0x2,%edi
  401807:	e8 dd 04 00 00       	callq  401ce9 <validate>
  40180c:	eb 19                	jmp    401827 <touch2+0x4c>
  40180e:	bf 08 33 40 00       	mov    $0x403308,%edi
  401813:	b8 00 00 00 00       	mov    $0x0,%eax
  401818:	e8 43 f4 ff ff       	callq  400c60 <printf@plt>
  40181d:	bf 02 00 00 00       	mov    $0x2,%edi
  401822:	e8 74 05 00 00       	callq  401d9b <fail>
  401827:	bf 00 00 00 00       	mov    $0x0,%edi
  40182c:	e8 8f f5 ff ff       	callq  400dc0 <exit@plt>

0000000000401831 <hexmatch>:
  401831:	41 54                	push   %r12
  401833:	55                   	push   %rbp
  401834:	53                   	push   %rbx
  401835:	48 83 ec 70          	sub    $0x70,%rsp
  401839:	41 89 fc             	mov    %edi,%r12d
  40183c:	48 89 f5             	mov    %rsi,%rbp
  40183f:	e8 dc f4 ff ff       	callq  400d20 <random@plt>
  401844:	48 89 c1             	mov    %rax,%rcx
  401847:	48 ba 0b d7 a3 70 3d 	movabs $0xa3d70a3d70a3d70b,%rdx
  40184e:	0a d7 a3 
  401851:	48 f7 ea             	imul   %rdx
  401854:	48 8d 04 0a          	lea    (%rdx,%rcx,1),%rax
  401858:	48 c1 f8 06          	sar    $0x6,%rax
  40185c:	48 89 ce             	mov    %rcx,%rsi
  40185f:	48 c1 fe 3f          	sar    $0x3f,%rsi
  401863:	48 29 f0             	sub    %rsi,%rax
  401866:	48 8d 04 80          	lea    (%rax,%rax,4),%rax
  40186a:	48 8d 04 80          	lea    (%rax,%rax,4),%rax
  40186e:	48 c1 e0 02          	shl    $0x2,%rax
  401872:	48 29 c1             	sub    %rax,%rcx
  401875:	48 8d 1c 0c          	lea    (%rsp,%rcx,1),%rbx
  401879:	44 89 e2             	mov    %r12d,%edx
  40187c:	be d8 32 40 00       	mov    $0x4032d8,%esi
  401881:	48 89 df             	mov    %rbx,%rdi
  401884:	b8 00 00 00 00       	mov    $0x0,%eax
  401889:	e8 22 f5 ff ff       	callq  400db0 <sprintf@plt>
  40188e:	ba 09 00 00 00       	mov    $0x9,%edx
  401893:	48 89 de             	mov    %rbx,%rsi
  401896:	48 89 ef             	mov    %rbp,%rdi
  401899:	e8 72 f3 ff ff       	callq  400c10 <strncmp@plt>
  40189e:	85 c0                	test   %eax,%eax
  4018a0:	0f 94 c0             	sete   %al
  4018a3:	0f b6 c0             	movzbl %al,%eax
  4018a6:	48 83 c4 70          	add    $0x70,%rsp
  4018aa:	5b                   	pop    %rbx
  4018ab:	5d                   	pop    %rbp
  4018ac:	41 5c                	pop    %r12
  4018ae:	c3                   	retq   

00000000004018af <touch3>:
  4018af:	53                   	push   %rbx
  4018b0:	48 89 fb             	mov    %rdi,%rbx
  4018b3:	c7 05 1f 3c 20 00 03 	movl   $0x3,0x203c1f(%rip)        # 6054dc <vlevel>
  4018ba:	00 00 00 
  4018bd:	48 89 fe             	mov    %rdi,%rsi
  4018c0:	8b 3d 1e 3c 20 00    	mov    0x203c1e(%rip),%edi        # 6054e4 <cookie>
  4018c6:	e8 66 ff ff ff       	callq  401831 <hexmatch>
  4018cb:	85 c0                	test   %eax,%eax
  4018cd:	74 1e                	je     4018ed <touch3+0x3e>
  4018cf:	48 89 de             	mov    %rbx,%rsi
  4018d2:	bf 30 33 40 00       	mov    $0x403330,%edi
  4018d7:	b8 00 00 00 00       	mov    $0x0,%eax
  4018dc:	e8 7f f3 ff ff       	callq  400c60 <printf@plt>
  4018e1:	bf 03 00 00 00       	mov    $0x3,%edi
  4018e6:	e8 fe 03 00 00       	callq  401ce9 <validate>
  4018eb:	eb 1c                	jmp    401909 <touch3+0x5a>
  4018ed:	48 89 de             	mov    %rbx,%rsi
  4018f0:	bf 58 33 40 00       	mov    $0x403358,%edi
  4018f5:	b8 00 00 00 00       	mov    $0x0,%eax
  4018fa:	e8 61 f3 ff ff       	callq  400c60 <printf@plt>
  4018ff:	bf 03 00 00 00       	mov    $0x3,%edi
  401904:	e8 92 04 00 00       	callq  401d9b <fail>
  401909:	bf 00 00 00 00       	mov    $0x0,%edi
  40190e:	e8 ad f4 ff ff       	callq  400dc0 <exit@plt>

0000000000401913 <test>:
  401913:	48 83 ec 08          	sub    $0x8,%rsp
  401917:	b8 00 00 00 00       	mov    $0x0,%eax
  40191c:	e8 78 fe ff ff       	callq  401799 <getbuf>
  401921:	89 c6                	mov    %eax,%esi
  401923:	bf 80 33 40 00       	mov    $0x403380,%edi
  401928:	b8 00 00 00 00       	mov    $0x0,%eax
  40192d:	e8 2e f3 ff ff       	callq  400c60 <printf@plt>
  401932:	48 83 c4 08          	add    $0x8,%rsp
  401936:	c3                   	retq   

0000000000401937 <start_farm>:
  401937:	b8 01 00 00 00       	mov    $0x1,%eax
  40193c:	c3                   	retq   

000000000040193d <addval_334>:
  40193d:	8d 87 0f 58 58 90    	lea    -0x6fa7a7f1(%rdi),%eax
  401943:	c3                   	retq   

0000000000401944 <addval_451>:
  401944:	8d 87 e5 72 58 90    	lea    -0x6fa78d1b(%rdi),%eax
  40194a:	c3                   	retq   

000000000040194b <getval_471>:
  40194b:	b8 58 91 c3 43       	mov    $0x43c39158,%eax
  401950:	c3                   	retq   

0000000000401951 <addval_154>:
  401951:	8d 87 4a 89 c7 c3    	lea    -0x3c3876b6(%rdi),%eax
  401957:	c3                   	retq   

0000000000401958 <setval_392>:
  401958:	c7 07 48 89 c7 c3    	movl   $0xc3c78948,(%rdi)
  40195e:	c3                   	retq   

000000000040195f <getval_283>:
  40195f:	b8 3b e8 f4 50       	mov    $0x50f4e83b,%eax
  401964:	c3                   	retq   

0000000000401965 <getval_162>:
  401965:	b8 68 89 c7 90       	mov    $0x90c78968,%eax
  40196a:	c3                   	retq   

000000000040196b <setval_490>:
  40196b:	c7 07 48 89 c7 c3    	movl   $0xc3c78948,(%rdi)
  401971:	c3                   	retq   

0000000000401972 <mid_farm>:
  401972:	b8 01 00 00 00       	mov    $0x1,%eax
  401977:	c3                   	retq   

0000000000401978 <add_xy>:
  401978:	48 8d 04 37          	lea    (%rdi,%rsi,1),%rax
  40197c:	c3                   	retq   

000000000040197d <getval_376>:
  40197d:	b8 89 c1 08 c9       	mov    $0xc908c189,%eax
  401982:	c3                   	retq   

0000000000401983 <setval_439>:
  401983:	c7 07 a9 d6 38 c9    	movl   $0xc938d6a9,(%rdi)
  401989:	c3                   	retq   

000000000040198a <addval_311>:
  40198a:	8d 87 09 ca 84 db    	lea    -0x247b35f7(%rdi),%eax
  401990:	c3                   	retq   

0000000000401991 <getval_436>:
  401991:	b8 89 c1 18 c0       	mov    $0xc018c189,%eax
  401996:	c3                   	retq   

0000000000401997 <addval_353>:
  401997:	8d 87 89 c1 00 c9    	lea    -0x36ff3e77(%rdi),%eax
  40199d:	c3                   	retq   

000000000040199e <addval_366>:
  40199e:	8d 87 48 89 e0 c3    	lea    -0x3c1f76b8(%rdi),%eax
  4019a4:	c3                   	retq   

00000000004019a5 <addval_378>:
  4019a5:	8d 87 09 d6 38 d2    	lea    -0x2dc729f7(%rdi),%eax
  4019ab:	c3                   	retq   

00000000004019ac <addval_483>:
  4019ac:	8d 87 48 89 e0 c1    	lea    -0x3e1f76b8(%rdi),%eax
  4019b2:	c3                   	retq   

00000000004019b3 <getval_385>:
  4019b3:	b8 48 c9 e0 c3       	mov    $0xc3e0c948,%eax
  4019b8:	c3                   	retq   

00000000004019b9 <setval_325>:
  4019b9:	c7 07 81 ca 84 db    	movl   $0xdb84ca81,(%rdi)
  4019bf:	c3                   	retq   

00000000004019c0 <setval_102>:
  4019c0:	c7 07 89 d6 90 c2    	movl   $0xc290d689,(%rdi)
  4019c6:	c3                   	retq   

00000000004019c7 <setval_321>:
  4019c7:	c7 07 89 ca 91 90    	movl   $0x9091ca89,(%rdi)
  4019cd:	c3                   	retq   

00000000004019ce <setval_449>:
  4019ce:	c7 07 89 d6 c1 66    	movl   $0x66c1d689,(%rdi)
  4019d4:	c3                   	retq   

00000000004019d5 <getval_493>:
  4019d5:	b8 a9 d6 20 db       	mov    $0xdb20d6a9,%eax
  4019da:	c3                   	retq   

00000000004019db <setval_478>:
  4019db:	c7 07 48 99 e0 90    	movl   $0x90e09948,(%rdi)
  4019e1:	c3                   	retq   

00000000004019e2 <getval_180>:
  4019e2:	b8 4a 89 e0 c3       	mov    $0xc3e0894a,%eax
  4019e7:	c3                   	retq   

00000000004019e8 <addval_109>:
  4019e8:	8d 87 35 89 c1 92    	lea    -0x6d3e76cb(%rdi),%eax
  4019ee:	c3                   	retq   

00000000004019ef <setval_374>:
  4019ef:	c7 07 89 c1 94 c0    	movl   $0xc094c189,(%rdi)
  4019f5:	c3                   	retq   

00000000004019f6 <setval_181>:
  4019f6:	c7 07 89 ca c3 e2    	movl   $0xe2c3ca89,(%rdi)
  4019fc:	c3                   	retq   

00000000004019fd <setval_259>:
  4019fd:	c7 07 89 ca 30 c9    	movl   $0xc930ca89,(%rdi)
  401a03:	c3                   	retq   

0000000000401a04 <getval_105>:
  401a04:	b8 89 ca 90 c3       	mov    $0xc390ca89,%eax
  401a09:	c3                   	retq   

0000000000401a0a <addval_494>:
  401a0a:	8d 87 89 c1 20 db    	lea    -0x24df3e77(%rdi),%eax
  401a10:	c3                   	retq   

0000000000401a11 <setval_137>:
  401a11:	c7 07 f2 89 d6 c3    	movl   $0xc3d689f2,(%rdi)
  401a17:	c3                   	retq   

0000000000401a18 <getval_243>:
  401a18:	b8 5b 99 d6 c3       	mov    $0xc3d6995b,%eax
  401a1d:	c3                   	retq   

0000000000401a1e <getval_335>:
  401a1e:	b8 48 89 e0 90       	mov    $0x90e08948,%eax
  401a23:	c3                   	retq   

0000000000401a24 <getval_115>:
  401a24:	b8 68 89 e0 c3       	mov    $0xc3e08968,%eax
  401a29:	c3                   	retq   

0000000000401a2a <addval_158>:
  401a2a:	8d 87 89 d6 84 c0    	lea    -0x3f7b2977(%rdi),%eax
  401a30:	c3                   	retq   

0000000000401a31 <getval_457>:
  401a31:	b8 89 c1 94 c3       	mov    $0xc394c189,%eax
  401a36:	c3                   	retq   

0000000000401a37 <addval_400>:
  401a37:	8d 87 89 ca 94 db    	lea    -0x246b3577(%rdi),%eax
  401a3d:	c3                   	retq   

0000000000401a3e <getval_202>:
  401a3e:	b8 48 89 e0 94       	mov    $0x94e08948,%eax
  401a43:	c3                   	retq   

0000000000401a44 <addval_293>:
  401a44:	8d 87 89 c1 c2 18    	lea    0x18c2c189(%rdi),%eax
  401a4a:	c3                   	retq   

0000000000401a4b <setval_479>:
  401a4b:	c7 07 89 ca 28 db    	movl   $0xdb28ca89,(%rdi)
  401a51:	c3                   	retq   

0000000000401a52 <end_farm>:
  401a52:	b8 01 00 00 00       	mov    $0x1,%eax
  401a57:	c3                   	retq   
  401a58:	0f 1f 84 00 00 00 00 	nopl   0x0(%rax,%rax,1)
  401a5f:	00 

0000000000401a60 <save_char>:
  401a60:	8b 05 9e 46 20 00    	mov    0x20469e(%rip),%eax        # 606104 <gets_cnt>
  401a66:	3d ff 03 00 00       	cmp    $0x3ff,%eax
  401a6b:	7f 49                	jg     401ab6 <save_char+0x56>
  401a6d:	8d 14 40             	lea    (%rax,%rax,2),%edx
  401a70:	89 f9                	mov    %edi,%ecx
  401a72:	c0 e9 04             	shr    $0x4,%cl
  401a75:	83 e1 0f             	and    $0xf,%ecx
  401a78:	0f b6 b1 a0 36 40 00 	movzbl 0x4036a0(%rcx),%esi
  401a7f:	48 63 ca             	movslq %edx,%rcx
  401a82:	40 88 b1 00 55 60 00 	mov    %sil,0x605500(%rcx)
  401a89:	8d 4a 01             	lea    0x1(%rdx),%ecx
  401a8c:	83 e7 0f             	and    $0xf,%edi
  401a8f:	0f b6 b7 a0 36 40 00 	movzbl 0x4036a0(%rdi),%esi
  401a96:	48 63 c9             	movslq %ecx,%rcx
  401a99:	40 88 b1 00 55 60 00 	mov    %sil,0x605500(%rcx)
  401aa0:	83 c2 02             	add    $0x2,%edx
  401aa3:	48 63 d2             	movslq %edx,%rdx
  401aa6:	c6 82 00 55 60 00 20 	movb   $0x20,0x605500(%rdx)
  401aad:	83 c0 01             	add    $0x1,%eax
  401ab0:	89 05 4e 46 20 00    	mov    %eax,0x20464e(%rip)        # 606104 <gets_cnt>
  401ab6:	f3 c3                	repz retq 

0000000000401ab8 <save_term>:
  401ab8:	8b 05 46 46 20 00    	mov    0x204646(%rip),%eax        # 606104 <gets_cnt>
  401abe:	8d 04 40             	lea    (%rax,%rax,2),%eax
  401ac1:	48 98                	cltq   
  401ac3:	c6 80 00 55 60 00 00 	movb   $0x0,0x605500(%rax)
  401aca:	c3                   	retq   

0000000000401acb <check_fail>:
  401acb:	48 83 ec 08          	sub    $0x8,%rsp
  401acf:	0f be 35 32 46 20 00 	movsbl 0x204632(%rip),%esi        # 606108 <target_prefix>
  401ad6:	b9 00 55 60 00       	mov    $0x605500,%ecx
  401adb:	8b 15 f7 39 20 00    	mov    0x2039f7(%rip),%edx        # 6054d8 <check_level>
  401ae1:	bf a3 33 40 00       	mov    $0x4033a3,%edi
  401ae6:	b8 00 00 00 00       	mov    $0x0,%eax
  401aeb:	e8 70 f1 ff ff       	callq  400c60 <printf@plt>
  401af0:	bf 01 00 00 00       	mov    $0x1,%edi
  401af5:	e8 c6 f2 ff ff       	callq  400dc0 <exit@plt>

0000000000401afa <Gets>:
  401afa:	41 54                	push   %r12
  401afc:	55                   	push   %rbp
  401afd:	53                   	push   %rbx
  401afe:	49 89 fc             	mov    %rdi,%r12
  401b01:	c7 05 f9 45 20 00 00 	movl   $0x0,0x2045f9(%rip)        # 606104 <gets_cnt>
  401b08:	00 00 00 
  401b0b:	48 89 fb             	mov    %rdi,%rbx
  401b0e:	eb 11                	jmp    401b21 <Gets+0x27>
  401b10:	48 8d 6b 01          	lea    0x1(%rbx),%rbp
  401b14:	88 03                	mov    %al,(%rbx)
  401b16:	0f b6 f8             	movzbl %al,%edi
  401b19:	e8 42 ff ff ff       	callq  401a60 <save_char>
  401b1e:	48 89 eb             	mov    %rbp,%rbx
  401b21:	48 8b 3d a8 39 20 00 	mov    0x2039a8(%rip),%rdi        # 6054d0 <infile>
  401b28:	e8 03 f2 ff ff       	callq  400d30 <_IO_getc@plt>
  401b2d:	83 f8 ff             	cmp    $0xffffffff,%eax
  401b30:	74 05                	je     401b37 <Gets+0x3d>
  401b32:	83 f8 0a             	cmp    $0xa,%eax
  401b35:	75 d9                	jne    401b10 <Gets+0x16>
  401b37:	c6 03 00             	movb   $0x0,(%rbx)
  401b3a:	b8 00 00 00 00       	mov    $0x0,%eax
  401b3f:	e8 74 ff ff ff       	callq  401ab8 <save_term>
  401b44:	4c 89 e0             	mov    %r12,%rax
  401b47:	5b                   	pop    %rbx
  401b48:	5d                   	pop    %rbp
  401b49:	41 5c                	pop    %r12
  401b4b:	c3                   	retq   

0000000000401b4c <notify_server>:
  401b4c:	83 3d 95 39 20 00 00 	cmpl   $0x0,0x203995(%rip)        # 6054e8 <is_checker>
  401b53:	0f 85 8e 01 00 00    	jne    401ce7 <notify_server+0x19b>
  401b59:	53                   	push   %rbx
  401b5a:	48 81 ec 10 40 00 00 	sub    $0x4010,%rsp
  401b61:	89 fb                	mov    %edi,%ebx
  401b63:	8b 05 9b 45 20 00    	mov    0x20459b(%rip),%eax        # 606104 <gets_cnt>
  401b69:	83 c0 64             	add    $0x64,%eax
  401b6c:	3d 00 20 00 00       	cmp    $0x2000,%eax
  401b71:	7e 19                	jle    401b8c <notify_server+0x40>
  401b73:	bf d8 34 40 00       	mov    $0x4034d8,%edi
  401b78:	b8 00 00 00 00       	mov    $0x0,%eax
  401b7d:	e8 de f0 ff ff       	callq  400c60 <printf@plt>
  401b82:	bf 01 00 00 00       	mov    $0x1,%edi
  401b87:	e8 34 f2 ff ff       	callq  400dc0 <exit@plt>
  401b8c:	44 0f be 0d 74 45 20 	movsbl 0x204574(%rip),%r9d        # 606108 <target_prefix>
  401b93:	00 
  401b94:	83 3d ed 38 20 00 00 	cmpl   $0x0,0x2038ed(%rip)        # 605488 <notify>
  401b9b:	74 09                	je     401ba6 <notify_server+0x5a>
  401b9d:	44 8b 05 3c 39 20 00 	mov    0x20393c(%rip),%r8d        # 6054e0 <authkey>
  401ba4:	eb 06                	jmp    401bac <notify_server+0x60>
  401ba6:	41 b8 ff ff ff ff    	mov    $0xffffffff,%r8d
  401bac:	85 db                	test   %ebx,%ebx
  401bae:	74 07                	je     401bb7 <notify_server+0x6b>
  401bb0:	b9 b9 33 40 00       	mov    $0x4033b9,%ecx
  401bb5:	eb 05                	jmp    401bbc <notify_server+0x70>
  401bb7:	b9 be 33 40 00       	mov    $0x4033be,%ecx
  401bbc:	48 c7 44 24 08 00 55 	movq   $0x605500,0x8(%rsp)
  401bc3:	60 00 
  401bc5:	89 34 24             	mov    %esi,(%rsp)
  401bc8:	8b 15 7a 35 20 00    	mov    0x20357a(%rip),%edx        # 605148 <target_id>
  401bce:	be c3 33 40 00       	mov    $0x4033c3,%esi
  401bd3:	48 8d bc 24 10 20 00 	lea    0x2010(%rsp),%rdi
  401bda:	00 
  401bdb:	b8 00 00 00 00       	mov    $0x0,%eax
  401be0:	e8 cb f1 ff ff       	callq  400db0 <sprintf@plt>
  401be5:	83 3d 9c 38 20 00 00 	cmpl   $0x0,0x20389c(%rip)        # 605488 <notify>
  401bec:	74 78                	je     401c66 <notify_server+0x11a>
  401bee:	85 db                	test   %ebx,%ebx
  401bf0:	74 68                	je     401c5a <notify_server+0x10e>
  401bf2:	4c 8d 4c 24 10       	lea    0x10(%rsp),%r9
  401bf7:	41 b8 00 00 00 00    	mov    $0x0,%r8d
  401bfd:	48 8d 8c 24 10 20 00 	lea    0x2010(%rsp),%rcx
  401c04:	00 
  401c05:	48 8b 15 44 35 20 00 	mov    0x203544(%rip),%rdx        # 605150 <lab>
  401c0c:	48 8b 35 45 35 20 00 	mov    0x203545(%rip),%rsi        # 605158 <course>
  401c13:	48 8b 3d 26 35 20 00 	mov    0x203526(%rip),%rdi        # 605140 <user_id>
  401c1a:	e8 94 0f 00 00       	callq  402bb3 <driver_post>
  401c1f:	85 c0                	test   %eax,%eax
  401c21:	79 1e                	jns    401c41 <notify_server+0xf5>
  401c23:	48 8d 74 24 10       	lea    0x10(%rsp),%rsi
  401c28:	bf df 33 40 00       	mov    $0x4033df,%edi
  401c2d:	b8 00 00 00 00       	mov    $0x0,%eax
  401c32:	e8 29 f0 ff ff       	callq  400c60 <printf@plt>
  401c37:	bf 01 00 00 00       	mov    $0x1,%edi
  401c3c:	e8 7f f1 ff ff       	callq  400dc0 <exit@plt>
  401c41:	bf 08 35 40 00       	mov    $0x403508,%edi
  401c46:	e8 e5 ef ff ff       	callq  400c30 <puts@plt>
  401c4b:	bf eb 33 40 00       	mov    $0x4033eb,%edi
  401c50:	e8 db ef ff ff       	callq  400c30 <puts@plt>
  401c55:	e9 85 00 00 00       	jmpq   401cdf <notify_server+0x193>
  401c5a:	bf f5 33 40 00       	mov    $0x4033f5,%edi
  401c5f:	e8 cc ef ff ff       	callq  400c30 <puts@plt>
  401c64:	eb 79                	jmp    401cdf <notify_server+0x193>
  401c66:	85 db                	test   %ebx,%ebx
  401c68:	74 08                	je     401c72 <notify_server+0x126>
  401c6a:	be b9 33 40 00       	mov    $0x4033b9,%esi
  401c6f:	90                   	nop
  401c70:	eb 05                	jmp    401c77 <notify_server+0x12b>
  401c72:	be be 33 40 00       	mov    $0x4033be,%esi
  401c77:	bf 40 35 40 00       	mov    $0x403540,%edi
  401c7c:	b8 00 00 00 00       	mov    $0x0,%eax
  401c81:	e8 da ef ff ff       	callq  400c60 <printf@plt>
  401c86:	48 8b 35 b3 34 20 00 	mov    0x2034b3(%rip),%rsi        # 605140 <user_id>
  401c8d:	bf fc 33 40 00       	mov    $0x4033fc,%edi
  401c92:	b8 00 00 00 00       	mov    $0x0,%eax
  401c97:	e8 c4 ef ff ff       	callq  400c60 <printf@plt>
  401c9c:	48 8b 35 b5 34 20 00 	mov    0x2034b5(%rip),%rsi        # 605158 <course>
  401ca3:	bf 09 34 40 00       	mov    $0x403409,%edi
  401ca8:	b8 00 00 00 00       	mov    $0x0,%eax
  401cad:	e8 ae ef ff ff       	callq  400c60 <printf@plt>
  401cb2:	48 8b 35 97 34 20 00 	mov    0x203497(%rip),%rsi        # 605150 <lab>
  401cb9:	bf 15 34 40 00       	mov    $0x403415,%edi
  401cbe:	b8 00 00 00 00       	mov    $0x0,%eax
  401cc3:	e8 98 ef ff ff       	callq  400c60 <printf@plt>
  401cc8:	48 8d b4 24 10 20 00 	lea    0x2010(%rsp),%rsi
  401ccf:	00 
  401cd0:	bf 1e 34 40 00       	mov    $0x40341e,%edi
  401cd5:	b8 00 00 00 00       	mov    $0x0,%eax
  401cda:	e8 81 ef ff ff       	callq  400c60 <printf@plt>
  401cdf:	48 81 c4 10 40 00 00 	add    $0x4010,%rsp
  401ce6:	5b                   	pop    %rbx
  401ce7:	f3 c3                	repz retq 

0000000000401ce9 <validate>:
  401ce9:	53                   	push   %rbx
  401cea:	89 fb                	mov    %edi,%ebx
  401cec:	83 3d f5 37 20 00 00 	cmpl   $0x0,0x2037f5(%rip)        # 6054e8 <is_checker>
  401cf3:	74 60                	je     401d55 <validate+0x6c>
  401cf5:	39 3d e1 37 20 00    	cmp    %edi,0x2037e1(%rip)        # 6054dc <vlevel>
  401cfb:	74 14                	je     401d11 <validate+0x28>
  401cfd:	bf 2a 34 40 00       	mov    $0x40342a,%edi
  401d02:	e8 29 ef ff ff       	callq  400c30 <puts@plt>
  401d07:	b8 00 00 00 00       	mov    $0x0,%eax
  401d0c:	e8 ba fd ff ff       	callq  401acb <check_fail>
  401d11:	8b 35 c1 37 20 00    	mov    0x2037c1(%rip),%esi        # 6054d8 <check_level>
  401d17:	39 fe                	cmp    %edi,%esi
  401d19:	74 1b                	je     401d36 <validate+0x4d>
  401d1b:	89 fa                	mov    %edi,%edx
  401d1d:	bf 68 35 40 00       	mov    $0x403568,%edi
  401d22:	b8 00 00 00 00       	mov    $0x0,%eax
  401d27:	e8 34 ef ff ff       	callq  400c60 <printf@plt>
  401d2c:	b8 00 00 00 00       	mov    $0x0,%eax
  401d31:	e8 95 fd ff ff       	callq  401acb <check_fail>
  401d36:	0f be 35 cb 43 20 00 	movsbl 0x2043cb(%rip),%esi        # 606108 <target_prefix>
  401d3d:	b9 00 55 60 00       	mov    $0x605500,%ecx
  401d42:	89 fa                	mov    %edi,%edx
  401d44:	bf 48 34 40 00       	mov    $0x403448,%edi
  401d49:	b8 00 00 00 00       	mov    $0x0,%eax
  401d4e:	e8 0d ef ff ff       	callq  400c60 <printf@plt>
  401d53:	eb 44                	jmp    401d99 <validate+0xb0>
  401d55:	39 3d 81 37 20 00    	cmp    %edi,0x203781(%rip)        # 6054dc <vlevel>
  401d5b:	74 18                	je     401d75 <validate+0x8c>
  401d5d:	bf 2a 34 40 00       	mov    $0x40342a,%edi
  401d62:	e8 c9 ee ff ff       	callq  400c30 <puts@plt>
  401d67:	89 de                	mov    %ebx,%esi
  401d69:	bf 00 00 00 00       	mov    $0x0,%edi
  401d6e:	e8 d9 fd ff ff       	callq  401b4c <notify_server>
  401d73:	eb 24                	jmp    401d99 <validate+0xb0>
  401d75:	0f be 15 8c 43 20 00 	movsbl 0x20438c(%rip),%edx        # 606108 <target_prefix>
  401d7c:	89 fe                	mov    %edi,%esi
  401d7e:	bf 90 35 40 00       	mov    $0x403590,%edi
  401d83:	b8 00 00 00 00       	mov    $0x0,%eax
  401d88:	e8 d3 ee ff ff       	callq  400c60 <printf@plt>
  401d8d:	89 de                	mov    %ebx,%esi
  401d8f:	bf 01 00 00 00       	mov    $0x1,%edi
  401d94:	e8 b3 fd ff ff       	callq  401b4c <notify_server>
  401d99:	5b                   	pop    %rbx
  401d9a:	c3                   	retq   

0000000000401d9b <fail>:
  401d9b:	48 83 ec 08          	sub    $0x8,%rsp
  401d9f:	83 3d 42 37 20 00 00 	cmpl   $0x0,0x203742(%rip)        # 6054e8 <is_checker>
  401da6:	74 0a                	je     401db2 <fail+0x17>
  401da8:	b8 00 00 00 00       	mov    $0x0,%eax
  401dad:	e8 19 fd ff ff       	callq  401acb <check_fail>
  401db2:	89 fe                	mov    %edi,%esi
  401db4:	bf 00 00 00 00       	mov    $0x0,%edi
  401db9:	e8 8e fd ff ff       	callq  401b4c <notify_server>
  401dbe:	48 83 c4 08          	add    $0x8,%rsp
  401dc2:	c3                   	retq   

0000000000401dc3 <bushandler>:
  401dc3:	48 83 ec 08          	sub    $0x8,%rsp
  401dc7:	83 3d 1a 37 20 00 00 	cmpl   $0x0,0x20371a(%rip)        # 6054e8 <is_checker>
  401dce:	74 14                	je     401de4 <bushandler+0x21>
  401dd0:	bf 5d 34 40 00       	mov    $0x40345d,%edi
  401dd5:	e8 56 ee ff ff       	callq  400c30 <puts@plt>
  401dda:	b8 00 00 00 00       	mov    $0x0,%eax
  401ddf:	e8 e7 fc ff ff       	callq  401acb <check_fail>
  401de4:	bf c8 35 40 00       	mov    $0x4035c8,%edi
  401de9:	e8 42 ee ff ff       	callq  400c30 <puts@plt>
  401dee:	bf 67 34 40 00       	mov    $0x403467,%edi
  401df3:	e8 38 ee ff ff       	callq  400c30 <puts@plt>
  401df8:	be 00 00 00 00       	mov    $0x0,%esi
  401dfd:	bf 00 00 00 00       	mov    $0x0,%edi
  401e02:	e8 45 fd ff ff       	callq  401b4c <notify_server>
  401e07:	bf 01 00 00 00       	mov    $0x1,%edi
  401e0c:	e8 af ef ff ff       	callq  400dc0 <exit@plt>

0000000000401e11 <seghandler>:
  401e11:	48 83 ec 08          	sub    $0x8,%rsp
  401e15:	83 3d cc 36 20 00 00 	cmpl   $0x0,0x2036cc(%rip)        # 6054e8 <is_checker>
  401e1c:	74 14                	je     401e32 <seghandler+0x21>
  401e1e:	bf 7d 34 40 00       	mov    $0x40347d,%edi
  401e23:	e8 08 ee ff ff       	callq  400c30 <puts@plt>
  401e28:	b8 00 00 00 00       	mov    $0x0,%eax
  401e2d:	e8 99 fc ff ff       	callq  401acb <check_fail>
  401e32:	bf e8 35 40 00       	mov    $0x4035e8,%edi
  401e37:	e8 f4 ed ff ff       	callq  400c30 <puts@plt>
  401e3c:	bf 67 34 40 00       	mov    $0x403467,%edi
  401e41:	e8 ea ed ff ff       	callq  400c30 <puts@plt>
  401e46:	be 00 00 00 00       	mov    $0x0,%esi
  401e4b:	bf 00 00 00 00       	mov    $0x0,%edi
  401e50:	e8 f7 fc ff ff       	callq  401b4c <notify_server>
  401e55:	bf 01 00 00 00       	mov    $0x1,%edi
  401e5a:	e8 61 ef ff ff       	callq  400dc0 <exit@plt>

0000000000401e5f <illegalhandler>:
  401e5f:	48 83 ec 08          	sub    $0x8,%rsp
  401e63:	83 3d 7e 36 20 00 00 	cmpl   $0x0,0x20367e(%rip)        # 6054e8 <is_checker>
  401e6a:	74 14                	je     401e80 <illegalhandler+0x21>
  401e6c:	bf 90 34 40 00       	mov    $0x403490,%edi
  401e71:	e8 ba ed ff ff       	callq  400c30 <puts@plt>
  401e76:	b8 00 00 00 00       	mov    $0x0,%eax
  401e7b:	e8 4b fc ff ff       	callq  401acb <check_fail>
  401e80:	bf 10 36 40 00       	mov    $0x403610,%edi
  401e85:	e8 a6 ed ff ff       	callq  400c30 <puts@plt>
  401e8a:	bf 67 34 40 00       	mov    $0x403467,%edi
  401e8f:	e8 9c ed ff ff       	callq  400c30 <puts@plt>
  401e94:	be 00 00 00 00       	mov    $0x0,%esi
  401e99:	bf 00 00 00 00       	mov    $0x0,%edi
  401e9e:	e8 a9 fc ff ff       	callq  401b4c <notify_server>
  401ea3:	bf 01 00 00 00       	mov    $0x1,%edi
  401ea8:	e8 13 ef ff ff       	callq  400dc0 <exit@plt>

0000000000401ead <sigalrmhandler>:
  401ead:	48 83 ec 08          	sub    $0x8,%rsp
  401eb1:	83 3d 30 36 20 00 00 	cmpl   $0x0,0x203630(%rip)        # 6054e8 <is_checker>
  401eb8:	74 14                	je     401ece <sigalrmhandler+0x21>
  401eba:	bf a4 34 40 00       	mov    $0x4034a4,%edi
  401ebf:	e8 6c ed ff ff       	callq  400c30 <puts@plt>
  401ec4:	b8 00 00 00 00       	mov    $0x0,%eax
  401ec9:	e8 fd fb ff ff       	callq  401acb <check_fail>
  401ece:	be 05 00 00 00       	mov    $0x5,%esi
  401ed3:	bf 40 36 40 00       	mov    $0x403640,%edi
  401ed8:	b8 00 00 00 00       	mov    $0x0,%eax
  401edd:	e8 7e ed ff ff       	callq  400c60 <printf@plt>
  401ee2:	be 00 00 00 00       	mov    $0x0,%esi
  401ee7:	bf 00 00 00 00       	mov    $0x0,%edi
  401eec:	e8 5b fc ff ff       	callq  401b4c <notify_server>
  401ef1:	bf 01 00 00 00       	mov    $0x1,%edi
  401ef6:	e8 c5 ee ff ff       	callq  400dc0 <exit@plt>

0000000000401efb <launch>:
  401efb:	55                   	push   %rbp
  401efc:	48 89 e5             	mov    %rsp,%rbp
  401eff:	48 89 fa             	mov    %rdi,%rdx
  401f02:	48 8d 47 1e          	lea    0x1e(%rdi),%rax
  401f06:	48 83 e0 f0          	and    $0xfffffffffffffff0,%rax
  401f0a:	48 29 c4             	sub    %rax,%rsp
  401f0d:	48 8d 7c 24 0f       	lea    0xf(%rsp),%rdi
  401f12:	48 83 e7 f0          	and    $0xfffffffffffffff0,%rdi
  401f16:	be f4 00 00 00       	mov    $0xf4,%esi
  401f1b:	e8 50 ed ff ff       	callq  400c70 <memset@plt>
  401f20:	48 8b 05 79 35 20 00 	mov    0x203579(%rip),%rax        # 6054a0 <stdin@@GLIBC_2.2.5>
  401f27:	48 39 05 a2 35 20 00 	cmp    %rax,0x2035a2(%rip)        # 6054d0 <infile>
  401f2e:	75 0f                	jne    401f3f <launch+0x44>
  401f30:	bf ac 34 40 00       	mov    $0x4034ac,%edi
  401f35:	b8 00 00 00 00       	mov    $0x0,%eax
  401f3a:	e8 21 ed ff ff       	callq  400c60 <printf@plt>
  401f3f:	c7 05 93 35 20 00 00 	movl   $0x0,0x203593(%rip)        # 6054dc <vlevel>
  401f46:	00 00 00 
  401f49:	b8 00 00 00 00       	mov    $0x0,%eax
  401f4e:	e8 c0 f9 ff ff       	callq  401913 <test>
  401f53:	83 3d 8e 35 20 00 00 	cmpl   $0x0,0x20358e(%rip)        # 6054e8 <is_checker>
  401f5a:	74 14                	je     401f70 <launch+0x75>
  401f5c:	bf b9 34 40 00       	mov    $0x4034b9,%edi
  401f61:	e8 ca ec ff ff       	callq  400c30 <puts@plt>
  401f66:	b8 00 00 00 00       	mov    $0x0,%eax
  401f6b:	e8 5b fb ff ff       	callq  401acb <check_fail>
  401f70:	bf c4 34 40 00       	mov    $0x4034c4,%edi
  401f75:	e8 b6 ec ff ff       	callq  400c30 <puts@plt>
  401f7a:	c9                   	leaveq 
  401f7b:	c3                   	retq   

0000000000401f7c <stable_launch>:
  401f7c:	53                   	push   %rbx
  401f7d:	48 89 3d 44 35 20 00 	mov    %rdi,0x203544(%rip)        # 6054c8 <global_offset>
  401f84:	41 b9 00 00 00 00    	mov    $0x0,%r9d
  401f8a:	41 b8 00 00 00 00    	mov    $0x0,%r8d
  401f90:	b9 32 01 00 00       	mov    $0x132,%ecx
  401f95:	ba 07 00 00 00       	mov    $0x7,%edx
  401f9a:	be 00 00 10 00       	mov    $0x100000,%esi
  401f9f:	bf 00 60 58 55       	mov    $0x55586000,%edi
  401fa4:	e8 a7 ec ff ff       	callq  400c50 <mmap@plt>
  401fa9:	48 89 c3             	mov    %rax,%rbx
  401fac:	48 3d 00 60 58 55    	cmp    $0x55586000,%rax
  401fb2:	74 32                	je     401fe6 <stable_launch+0x6a>
  401fb4:	be 00 00 10 00       	mov    $0x100000,%esi
  401fb9:	48 89 c7             	mov    %rax,%rdi
  401fbc:	e8 8f ed ff ff       	callq  400d50 <munmap@plt>
  401fc1:	ba 00 60 58 55       	mov    $0x55586000,%edx
  401fc6:	be 78 36 40 00       	mov    $0x403678,%esi
  401fcb:	48 8b 3d de 34 20 00 	mov    0x2034de(%rip),%rdi        # 6054b0 <stderr@@GLIBC_2.2.5>
  401fd2:	b8 00 00 00 00       	mov    $0x0,%eax
  401fd7:	e8 04 ed ff ff       	callq  400ce0 <fprintf@plt>
  401fdc:	bf 01 00 00 00       	mov    $0x1,%edi
  401fe1:	e8 da ed ff ff       	callq  400dc0 <exit@plt>
  401fe6:	48 8d 90 f8 ff 0f 00 	lea    0xffff8(%rax),%rdx
  401fed:	48 89 15 1c 41 20 00 	mov    %rdx,0x20411c(%rip)        # 606110 <stack_top>
  401ff4:	48 89 e0             	mov    %rsp,%rax
  401ff7:	48 89 d4             	mov    %rdx,%rsp
  401ffa:	48 89 c2             	mov    %rax,%rdx
  401ffd:	48 89 15 bc 34 20 00 	mov    %rdx,0x2034bc(%rip)        # 6054c0 <global_save_stack>
  402004:	48 8b 3d bd 34 20 00 	mov    0x2034bd(%rip),%rdi        # 6054c8 <global_offset>
  40200b:	e8 eb fe ff ff       	callq  401efb <launch>
  402010:	48 8b 05 a9 34 20 00 	mov    0x2034a9(%rip),%rax        # 6054c0 <global_save_stack>
  402017:	48 89 c4             	mov    %rax,%rsp
  40201a:	be 00 00 10 00       	mov    $0x100000,%esi
  40201f:	48 89 df             	mov    %rbx,%rdi
  402022:	e8 29 ed ff ff       	callq  400d50 <munmap@plt>
  402027:	5b                   	pop    %rbx
  402028:	c3                   	retq   
  402029:	0f 1f 80 00 00 00 00 	nopl   0x0(%rax)

0000000000402030 <rio_readinitb>:
  402030:	89 37                	mov    %esi,(%rdi)
  402032:	c7 47 04 00 00 00 00 	movl   $0x0,0x4(%rdi)
  402039:	48 8d 47 10          	lea    0x10(%rdi),%rax
  40203d:	48 89 47 08          	mov    %rax,0x8(%rdi)
  402041:	c3                   	retq   

0000000000402042 <sigalrm_handler>:
  402042:	48 83 ec 08          	sub    $0x8,%rsp
  402046:	ba 00 00 00 00       	mov    $0x0,%edx
  40204b:	be b0 36 40 00       	mov    $0x4036b0,%esi
  402050:	48 8b 3d 59 34 20 00 	mov    0x203459(%rip),%rdi        # 6054b0 <stderr@@GLIBC_2.2.5>
  402057:	b8 00 00 00 00       	mov    $0x0,%eax
  40205c:	e8 7f ec ff ff       	callq  400ce0 <fprintf@plt>
  402061:	bf 01 00 00 00       	mov    $0x1,%edi
  402066:	e8 55 ed ff ff       	callq  400dc0 <exit@plt>

000000000040206b <urlencode>:
  40206b:	41 54                	push   %r12
  40206d:	55                   	push   %rbp
  40206e:	53                   	push   %rbx
  40206f:	48 83 ec 10          	sub    $0x10,%rsp
  402073:	48 89 fb             	mov    %rdi,%rbx
  402076:	48 89 f5             	mov    %rsi,%rbp
  402079:	b8 00 00 00 00       	mov    $0x0,%eax
  40207e:	48 c7 c1 ff ff ff ff 	mov    $0xffffffffffffffff,%rcx
  402085:	f2 ae                	repnz scas %es:(%rdi),%al
  402087:	48 f7 d1             	not    %rcx
  40208a:	8d 41 ff             	lea    -0x1(%rcx),%eax
  40208d:	e9 93 00 00 00       	jmpq   402125 <urlencode+0xba>
  402092:	0f b6 13             	movzbl (%rbx),%edx
  402095:	80 fa 2a             	cmp    $0x2a,%dl
  402098:	0f 94 c1             	sete   %cl
  40209b:	80 fa 2d             	cmp    $0x2d,%dl
  40209e:	0f 94 c0             	sete   %al
  4020a1:	08 c1                	or     %al,%cl
  4020a3:	75 1f                	jne    4020c4 <urlencode+0x59>
  4020a5:	80 fa 2e             	cmp    $0x2e,%dl
  4020a8:	74 1a                	je     4020c4 <urlencode+0x59>
  4020aa:	80 fa 5f             	cmp    $0x5f,%dl
  4020ad:	74 15                	je     4020c4 <urlencode+0x59>
  4020af:	8d 42 d0             	lea    -0x30(%rdx),%eax
  4020b2:	3c 09                	cmp    $0x9,%al
  4020b4:	76 0e                	jbe    4020c4 <urlencode+0x59>
  4020b6:	8d 42 bf             	lea    -0x41(%rdx),%eax
  4020b9:	3c 19                	cmp    $0x19,%al
  4020bb:	76 07                	jbe    4020c4 <urlencode+0x59>
  4020bd:	8d 42 9f             	lea    -0x61(%rdx),%eax
  4020c0:	3c 19                	cmp    $0x19,%al
  4020c2:	77 09                	ja     4020cd <urlencode+0x62>
  4020c4:	88 55 00             	mov    %dl,0x0(%rbp)
  4020c7:	48 8d 6d 01          	lea    0x1(%rbp),%rbp
  4020cb:	eb 51                	jmp    40211e <urlencode+0xb3>
  4020cd:	80 fa 20             	cmp    $0x20,%dl
  4020d0:	75 0a                	jne    4020dc <urlencode+0x71>
  4020d2:	c6 45 00 2b          	movb   $0x2b,0x0(%rbp)
  4020d6:	48 8d 6d 01          	lea    0x1(%rbp),%rbp
  4020da:	eb 42                	jmp    40211e <urlencode+0xb3>
  4020dc:	8d 42 e0             	lea    -0x20(%rdx),%eax
  4020df:	3c 5f                	cmp    $0x5f,%al
  4020e1:	0f 96 c1             	setbe  %cl
  4020e4:	80 fa 09             	cmp    $0x9,%dl
  4020e7:	0f 94 c0             	sete   %al
  4020ea:	08 c1                	or     %al,%cl
  4020ec:	74 45                	je     402133 <urlencode+0xc8>
  4020ee:	0f b6 d2             	movzbl %dl,%edx
  4020f1:	be 48 37 40 00       	mov    $0x403748,%esi
  4020f6:	48 89 e7             	mov    %rsp,%rdi
  4020f9:	b8 00 00 00 00       	mov    $0x0,%eax
  4020fe:	e8 ad ec ff ff       	callq  400db0 <sprintf@plt>
  402103:	0f b6 04 24          	movzbl (%rsp),%eax
  402107:	88 45 00             	mov    %al,0x0(%rbp)
  40210a:	0f b6 44 24 01       	movzbl 0x1(%rsp),%eax
  40210f:	88 45 01             	mov    %al,0x1(%rbp)
  402112:	0f b6 44 24 02       	movzbl 0x2(%rsp),%eax
  402117:	88 45 02             	mov    %al,0x2(%rbp)
  40211a:	48 8d 6d 03          	lea    0x3(%rbp),%rbp
  40211e:	48 83 c3 01          	add    $0x1,%rbx
  402122:	44 89 e0             	mov    %r12d,%eax
  402125:	44 8d 60 ff          	lea    -0x1(%rax),%r12d
  402129:	85 c0                	test   %eax,%eax
  40212b:	0f 85 61 ff ff ff    	jne    402092 <urlencode+0x27>
  402131:	eb 05                	jmp    402138 <urlencode+0xcd>
  402133:	b8 ff ff ff ff       	mov    $0xffffffff,%eax
  402138:	48 83 c4 10          	add    $0x10,%rsp
  40213c:	5b                   	pop    %rbx
  40213d:	5d                   	pop    %rbp
  40213e:	41 5c                	pop    %r12
  402140:	c3                   	retq   

0000000000402141 <rio_writen>:
  402141:	41 55                	push   %r13
  402143:	41 54                	push   %r12
  402145:	55                   	push   %rbp
  402146:	53                   	push   %rbx
  402147:	48 83 ec 08          	sub    $0x8,%rsp
  40214b:	41 89 fc             	mov    %edi,%r12d
  40214e:	48 89 f5             	mov    %rsi,%rbp
  402151:	49 89 d5             	mov    %rdx,%r13
  402154:	48 89 d3             	mov    %rdx,%rbx
  402157:	eb 28                	jmp    402181 <rio_writen+0x40>
  402159:	48 89 da             	mov    %rbx,%rdx
  40215c:	48 89 ee             	mov    %rbp,%rsi
  40215f:	44 89 e7             	mov    %r12d,%edi
  402162:	e8 d9 ea ff ff       	callq  400c40 <write@plt>
  402167:	48 85 c0             	test   %rax,%rax
  40216a:	7f 0f                	jg     40217b <rio_writen+0x3a>
  40216c:	e8 7f ea ff ff       	callq  400bf0 <__errno_location@plt>
  402171:	83 38 04             	cmpl   $0x4,(%rax)
  402174:	75 15                	jne    40218b <rio_writen+0x4a>
  402176:	b8 00 00 00 00       	mov    $0x0,%eax
  40217b:	48 29 c3             	sub    %rax,%rbx
  40217e:	48 01 c5             	add    %rax,%rbp
  402181:	48 85 db             	test   %rbx,%rbx
  402184:	75 d3                	jne    402159 <rio_writen+0x18>
  402186:	4c 89 e8             	mov    %r13,%rax
  402189:	eb 07                	jmp    402192 <rio_writen+0x51>
  40218b:	48 c7 c0 ff ff ff ff 	mov    $0xffffffffffffffff,%rax
  402192:	48 83 c4 08          	add    $0x8,%rsp
  402196:	5b                   	pop    %rbx
  402197:	5d                   	pop    %rbp
  402198:	41 5c                	pop    %r12
  40219a:	41 5d                	pop    %r13
  40219c:	c3                   	retq   

000000000040219d <rio_read>:
  40219d:	41 56                	push   %r14
  40219f:	41 55                	push   %r13
  4021a1:	41 54                	push   %r12
  4021a3:	55                   	push   %rbp
  4021a4:	53                   	push   %rbx
  4021a5:	48 89 fb             	mov    %rdi,%rbx
  4021a8:	49 89 f6             	mov    %rsi,%r14
  4021ab:	49 89 d5             	mov    %rdx,%r13
  4021ae:	4c 8d 67 10          	lea    0x10(%rdi),%r12
  4021b2:	eb 2a                	jmp    4021de <rio_read+0x41>
  4021b4:	ba 00 20 00 00       	mov    $0x2000,%edx
  4021b9:	4c 89 e6             	mov    %r12,%rsi
  4021bc:	8b 3b                	mov    (%rbx),%edi
  4021be:	e8 dd ea ff ff       	callq  400ca0 <read@plt>
  4021c3:	89 43 04             	mov    %eax,0x4(%rbx)
  4021c6:	85 c0                	test   %eax,%eax
  4021c8:	79 0c                	jns    4021d6 <rio_read+0x39>
  4021ca:	e8 21 ea ff ff       	callq  400bf0 <__errno_location@plt>
  4021cf:	83 38 04             	cmpl   $0x4,(%rax)
  4021d2:	74 0a                	je     4021de <rio_read+0x41>
  4021d4:	eb 37                	jmp    40220d <rio_read+0x70>
  4021d6:	85 c0                	test   %eax,%eax
  4021d8:	74 3c                	je     402216 <rio_read+0x79>
  4021da:	4c 89 63 08          	mov    %r12,0x8(%rbx)
  4021de:	8b 6b 04             	mov    0x4(%rbx),%ebp
  4021e1:	85 ed                	test   %ebp,%ebp
  4021e3:	7e cf                	jle    4021b4 <rio_read+0x17>
  4021e5:	89 e8                	mov    %ebp,%eax
  4021e7:	4c 39 e8             	cmp    %r13,%rax
  4021ea:	72 03                	jb     4021ef <rio_read+0x52>
  4021ec:	44 89 ed             	mov    %r13d,%ebp
  4021ef:	4c 63 e5             	movslq %ebp,%r12
  4021f2:	48 8b 73 08          	mov    0x8(%rbx),%rsi
  4021f6:	4c 89 e2             	mov    %r12,%rdx
  4021f9:	4c 89 f7             	mov    %r14,%rdi
  4021fc:	e8 ff ea ff ff       	callq  400d00 <memcpy@plt>
  402201:	4c 01 63 08          	add    %r12,0x8(%rbx)
  402205:	29 6b 04             	sub    %ebp,0x4(%rbx)
  402208:	4c 89 e0             	mov    %r12,%rax
  40220b:	eb 0e                	jmp    40221b <rio_read+0x7e>
  40220d:	48 c7 c0 ff ff ff ff 	mov    $0xffffffffffffffff,%rax
  402214:	eb 05                	jmp    40221b <rio_read+0x7e>
  402216:	b8 00 00 00 00       	mov    $0x0,%eax
  40221b:	5b                   	pop    %rbx
  40221c:	5d                   	pop    %rbp
  40221d:	41 5c                	pop    %r12
  40221f:	41 5d                	pop    %r13
  402221:	41 5e                	pop    %r14
  402223:	c3                   	retq   

0000000000402224 <rio_readlineb>:
  402224:	41 55                	push   %r13
  402226:	41 54                	push   %r12
  402228:	55                   	push   %rbp
  402229:	53                   	push   %rbx
  40222a:	48 83 ec 18          	sub    $0x18,%rsp
  40222e:	49 89 fd             	mov    %rdi,%r13
  402231:	48 89 f5             	mov    %rsi,%rbp
  402234:	49 89 d4             	mov    %rdx,%r12
  402237:	bb 01 00 00 00       	mov    $0x1,%ebx
  40223c:	eb 3d                	jmp    40227b <rio_readlineb+0x57>
  40223e:	ba 01 00 00 00       	mov    $0x1,%edx
  402243:	48 8d 74 24 0f       	lea    0xf(%rsp),%rsi
  402248:	4c 89 ef             	mov    %r13,%rdi
  40224b:	e8 4d ff ff ff       	callq  40219d <rio_read>
  402250:	83 f8 01             	cmp    $0x1,%eax
  402253:	75 12                	jne    402267 <rio_readlineb+0x43>
  402255:	48 8d 55 01          	lea    0x1(%rbp),%rdx
  402259:	0f b6 44 24 0f       	movzbl 0xf(%rsp),%eax
  40225e:	88 45 00             	mov    %al,0x0(%rbp)
  402261:	3c 0a                	cmp    $0xa,%al
  402263:	75 0f                	jne    402274 <rio_readlineb+0x50>
  402265:	eb 1b                	jmp    402282 <rio_readlineb+0x5e>
  402267:	85 c0                	test   %eax,%eax
  402269:	75 23                	jne    40228e <rio_readlineb+0x6a>
  40226b:	48 83 fb 01          	cmp    $0x1,%rbx
  40226f:	90                   	nop
  402270:	75 13                	jne    402285 <rio_readlineb+0x61>
  402272:	eb 23                	jmp    402297 <rio_readlineb+0x73>
  402274:	48 83 c3 01          	add    $0x1,%rbx
  402278:	48 89 d5             	mov    %rdx,%rbp
  40227b:	4c 39 e3             	cmp    %r12,%rbx
  40227e:	72 be                	jb     40223e <rio_readlineb+0x1a>
  402280:	eb 03                	jmp    402285 <rio_readlineb+0x61>
  402282:	48 89 d5             	mov    %rdx,%rbp
  402285:	c6 45 00 00          	movb   $0x0,0x0(%rbp)
  402289:	48 89 d8             	mov    %rbx,%rax
  40228c:	eb 0e                	jmp    40229c <rio_readlineb+0x78>
  40228e:	48 c7 c0 ff ff ff ff 	mov    $0xffffffffffffffff,%rax
  402295:	eb 05                	jmp    40229c <rio_readlineb+0x78>
  402297:	b8 00 00 00 00       	mov    $0x0,%eax
  40229c:	48 83 c4 18          	add    $0x18,%rsp
  4022a0:	5b                   	pop    %rbx
  4022a1:	5d                   	pop    %rbp
  4022a2:	41 5c                	pop    %r12
  4022a4:	41 5d                	pop    %r13
  4022a6:	c3                   	retq   

00000000004022a7 <submitr>:
  4022a7:	41 57                	push   %r15
  4022a9:	41 56                	push   %r14
  4022ab:	41 55                	push   %r13
  4022ad:	41 54                	push   %r12
  4022af:	55                   	push   %rbp
  4022b0:	53                   	push   %rbx
  4022b1:	48 81 ec 48 a0 00 00 	sub    $0xa048,%rsp
  4022b8:	49 89 fc             	mov    %rdi,%r12
  4022bb:	89 74 24 04          	mov    %esi,0x4(%rsp)
  4022bf:	49 89 d7             	mov    %rdx,%r15
  4022c2:	49 89 ce             	mov    %rcx,%r14
  4022c5:	4c 89 44 24 08       	mov    %r8,0x8(%rsp)
  4022ca:	4d 89 cd             	mov    %r9,%r13
  4022cd:	48 8b 9c 24 80 a0 00 	mov    0xa080(%rsp),%rbx
  4022d4:	00 
  4022d5:	c7 84 24 1c 20 00 00 	movl   $0x0,0x201c(%rsp)
  4022dc:	00 00 00 00 
  4022e0:	ba 00 00 00 00       	mov    $0x0,%edx
  4022e5:	be 01 00 00 00       	mov    $0x1,%esi
  4022ea:	bf 02 00 00 00       	mov    $0x2,%edi
  4022ef:	e8 ec ea ff ff       	callq  400de0 <socket@plt>
  4022f4:	89 c5                	mov    %eax,%ebp
  4022f6:	85 c0                	test   %eax,%eax
  4022f8:	79 4e                	jns    402348 <submitr+0xa1>
  4022fa:	48 b8 45 72 72 6f 72 	movabs $0x43203a726f727245,%rax
  402301:	3a 20 43 
  402304:	48 89 03             	mov    %rax,(%rbx)
  402307:	48 b8 6c 69 65 6e 74 	movabs $0x6e7520746e65696c,%rax
  40230e:	20 75 6e 
  402311:	48 89 43 08          	mov    %rax,0x8(%rbx)
  402315:	48 b8 61 62 6c 65 20 	movabs $0x206f7420656c6261,%rax
  40231c:	74 6f 20 
  40231f:	48 89 43 10          	mov    %rax,0x10(%rbx)
  402323:	48 b8 63 72 65 61 74 	movabs $0x7320657461657263,%rax
  40232a:	65 20 73 
  40232d:	48 89 43 18          	mov    %rax,0x18(%rbx)
  402331:	c7 43 20 6f 63 6b 65 	movl   $0x656b636f,0x20(%rbx)
  402338:	66 c7 43 24 74 00    	movw   $0x74,0x24(%rbx)
  40233e:	b8 ff ff ff ff       	mov    $0xffffffff,%eax
  402343:	e9 68 06 00 00       	jmpq   4029b0 <submitr+0x709>
  402348:	4c 89 e7             	mov    %r12,%rdi
  40234b:	e8 80 e9 ff ff       	callq  400cd0 <gethostbyname@plt>
  402350:	48 85 c0             	test   %rax,%rax
  402353:	75 67                	jne    4023bc <submitr+0x115>
  402355:	48 b8 45 72 72 6f 72 	movabs $0x44203a726f727245,%rax
  40235c:	3a 20 44 
  40235f:	48 89 03             	mov    %rax,(%rbx)
  402362:	48 b8 4e 53 20 69 73 	movabs $0x6e7520736920534e,%rax
  402369:	20 75 6e 
  40236c:	48 89 43 08          	mov    %rax,0x8(%rbx)
  402370:	48 b8 61 62 6c 65 20 	movabs $0x206f7420656c6261,%rax
  402377:	74 6f 20 
  40237a:	48 89 43 10          	mov    %rax,0x10(%rbx)
  40237e:	48 b8 72 65 73 6f 6c 	movabs $0x2065766c6f736572,%rax
  402385:	76 65 20 
  402388:	48 89 43 18          	mov    %rax,0x18(%rbx)
  40238c:	48 b8 73 65 72 76 65 	movabs $0x6120726576726573,%rax
  402393:	72 20 61 
  402396:	48 89 43 20          	mov    %rax,0x20(%rbx)
  40239a:	c7 43 28 64 64 72 65 	movl   $0x65726464,0x28(%rbx)
  4023a1:	66 c7 43 2c 73 73    	movw   $0x7373,0x2c(%rbx)
  4023a7:	c6 43 2e 00          	movb   $0x0,0x2e(%rbx)
  4023ab:	89 ef                	mov    %ebp,%edi
  4023ad:	e8 de e8 ff ff       	callq  400c90 <close@plt>
  4023b2:	b8 ff ff ff ff       	mov    $0xffffffff,%eax
  4023b7:	e9 f4 05 00 00       	jmpq   4029b0 <submitr+0x709>
  4023bc:	48 c7 84 24 30 a0 00 	movq   $0x0,0xa030(%rsp)
  4023c3:	00 00 00 00 00 
  4023c8:	48 c7 84 24 38 a0 00 	movq   $0x0,0xa038(%rsp)
  4023cf:	00 00 00 00 00 
  4023d4:	66 c7 84 24 30 a0 00 	movw   $0x2,0xa030(%rsp)
  4023db:	00 02 00 
  4023de:	48 8b 48 18          	mov    0x18(%rax),%rcx
  4023e2:	48 63 50 14          	movslq 0x14(%rax),%rdx
  4023e6:	48 8d b4 24 34 a0 00 	lea    0xa034(%rsp),%rsi
  4023ed:	00 
  4023ee:	48 8b 39             	mov    (%rcx),%rdi
  4023f1:	e8 6a e9 ff ff       	callq  400d60 <bcopy@plt>
  4023f6:	0f b7 44 24 04       	movzwl 0x4(%rsp),%eax
  4023fb:	66 c1 c8 08          	ror    $0x8,%ax
  4023ff:	66 89 84 24 32 a0 00 	mov    %ax,0xa032(%rsp)
  402406:	00 
  402407:	ba 10 00 00 00       	mov    $0x10,%edx
  40240c:	48 8d b4 24 30 a0 00 	lea    0xa030(%rsp),%rsi
  402413:	00 
  402414:	89 ef                	mov    %ebp,%edi
  402416:	e8 b5 e9 ff ff       	callq  400dd0 <connect@plt>
  40241b:	85 c0                	test   %eax,%eax
  40241d:	79 59                	jns    402478 <submitr+0x1d1>
  40241f:	48 b8 45 72 72 6f 72 	movabs $0x55203a726f727245,%rax
  402426:	3a 20 55 
  402429:	48 89 03             	mov    %rax,(%rbx)
  40242c:	48 b8 6e 61 62 6c 65 	movabs $0x6f7420656c62616e,%rax
  402433:	20 74 6f 
  402436:	48 89 43 08          	mov    %rax,0x8(%rbx)
  40243a:	48 b8 20 63 6f 6e 6e 	movabs $0x7463656e6e6f6320,%rax
  402441:	65 63 74 
  402444:	48 89 43 10          	mov    %rax,0x10(%rbx)
  402448:	48 b8 20 74 6f 20 74 	movabs $0x20656874206f7420,%rax
  40244f:	68 65 20 
  402452:	48 89 43 18          	mov    %rax,0x18(%rbx)
  402456:	c7 43 20 73 65 72 76 	movl   $0x76726573,0x20(%rbx)
  40245d:	66 c7 43 24 65 72    	movw   $0x7265,0x24(%rbx)
  402463:	c6 43 26 00          	movb   $0x0,0x26(%rbx)
  402467:	89 ef                	mov    %ebp,%edi
  402469:	e8 22 e8 ff ff       	callq  400c90 <close@plt>
  40246e:	b8 ff ff ff ff       	mov    $0xffffffff,%eax
  402473:	e9 38 05 00 00       	jmpq   4029b0 <submitr+0x709>
  402478:	48 c7 c2 ff ff ff ff 	mov    $0xffffffffffffffff,%rdx
  40247f:	4c 89 ef             	mov    %r13,%rdi
  402482:	b8 00 00 00 00       	mov    $0x0,%eax
  402487:	48 89 d1             	mov    %rdx,%rcx
  40248a:	f2 ae                	repnz scas %es:(%rdi),%al
  40248c:	48 f7 d1             	not    %rcx
  40248f:	48 89 ce             	mov    %rcx,%rsi
  402492:	4c 89 ff             	mov    %r15,%rdi
  402495:	48 89 d1             	mov    %rdx,%rcx
  402498:	f2 ae                	repnz scas %es:(%rdi),%al
  40249a:	48 f7 d1             	not    %rcx
  40249d:	49 89 c8             	mov    %rcx,%r8
  4024a0:	4c 89 f7             	mov    %r14,%rdi
  4024a3:	48 89 d1             	mov    %rdx,%rcx
  4024a6:	f2 ae                	repnz scas %es:(%rdi),%al
  4024a8:	49 29 c8             	sub    %rcx,%r8
  4024ab:	48 8b 7c 24 08       	mov    0x8(%rsp),%rdi
  4024b0:	48 89 d1             	mov    %rdx,%rcx
  4024b3:	f2 ae                	repnz scas %es:(%rdi),%al
  4024b5:	49 29 c8             	sub    %rcx,%r8
  4024b8:	48 8d 44 76 fd       	lea    -0x3(%rsi,%rsi,2),%rax
  4024bd:	49 8d 44 00 7b       	lea    0x7b(%r8,%rax,1),%rax
  4024c2:	48 3d 00 20 00 00    	cmp    $0x2000,%rax
  4024c8:	76 72                	jbe    40253c <submitr+0x295>
  4024ca:	48 b8 45 72 72 6f 72 	movabs $0x52203a726f727245,%rax
  4024d1:	3a 20 52 
  4024d4:	48 89 03             	mov    %rax,(%rbx)
  4024d7:	48 b8 65 73 75 6c 74 	movabs $0x747320746c757365,%rax
  4024de:	20 73 74 
  4024e1:	48 89 43 08          	mov    %rax,0x8(%rbx)
  4024e5:	48 b8 72 69 6e 67 20 	movabs $0x6f6f7420676e6972,%rax
  4024ec:	74 6f 6f 
  4024ef:	48 89 43 10          	mov    %rax,0x10(%rbx)
  4024f3:	48 b8 20 6c 61 72 67 	movabs $0x202e656772616c20,%rax
  4024fa:	65 2e 20 
  4024fd:	48 89 43 18          	mov    %rax,0x18(%rbx)
  402501:	48 b8 49 6e 63 72 65 	movabs $0x6573616572636e49,%rax
  402508:	61 73 65 
  40250b:	48 89 43 20          	mov    %rax,0x20(%rbx)
  40250f:	48 b8 20 53 55 42 4d 	movabs $0x5254494d42555320,%rax
  402516:	49 54 52 
  402519:	48 89 43 28          	mov    %rax,0x28(%rbx)
  40251d:	48 b8 5f 4d 41 58 42 	movabs $0x46554258414d5f,%rax
  402524:	55 46 00 
  402527:	48 89 43 30          	mov    %rax,0x30(%rbx)
  40252b:	89 ef                	mov    %ebp,%edi
  40252d:	e8 5e e7 ff ff       	callq  400c90 <close@plt>
  402532:	b8 ff ff ff ff       	mov    $0xffffffff,%eax
  402537:	e9 74 04 00 00       	jmpq   4029b0 <submitr+0x709>
  40253c:	48 8d b4 24 20 40 00 	lea    0x4020(%rsp),%rsi
  402543:	00 
  402544:	b9 00 04 00 00       	mov    $0x400,%ecx
  402549:	b8 00 00 00 00       	mov    $0x0,%eax
  40254e:	48 89 f7             	mov    %rsi,%rdi
  402551:	f3 48 ab             	rep stos %rax,%es:(%rdi)
  402554:	4c 89 ef             	mov    %r13,%rdi
  402557:	e8 0f fb ff ff       	callq  40206b <urlencode>
  40255c:	85 c0                	test   %eax,%eax
  40255e:	0f 89 8a 00 00 00    	jns    4025ee <submitr+0x347>
  402564:	48 b8 45 72 72 6f 72 	movabs $0x52203a726f727245,%rax
  40256b:	3a 20 52 
  40256e:	48 89 03             	mov    %rax,(%rbx)
  402571:	48 b8 65 73 75 6c 74 	movabs $0x747320746c757365,%rax
  402578:	20 73 74 
  40257b:	48 89 43 08          	mov    %rax,0x8(%rbx)
  40257f:	48 b8 72 69 6e 67 20 	movabs $0x6e6f6320676e6972,%rax
  402586:	63 6f 6e 
  402589:	48 89 43 10          	mov    %rax,0x10(%rbx)
  40258d:	48 b8 74 61 69 6e 73 	movabs $0x6e6120736e696174,%rax
  402594:	20 61 6e 
  402597:	48 89 43 18          	mov    %rax,0x18(%rbx)
  40259b:	48 b8 20 69 6c 6c 65 	movabs $0x6c6167656c6c6920,%rax
  4025a2:	67 61 6c 
  4025a5:	48 89 43 20          	mov    %rax,0x20(%rbx)
  4025a9:	48 b8 20 6f 72 20 75 	movabs $0x72706e7520726f20,%rax
  4025b0:	6e 70 72 
  4025b3:	48 89 43 28          	mov    %rax,0x28(%rbx)
  4025b7:	48 b8 69 6e 74 61 62 	movabs $0x20656c6261746e69,%rax
  4025be:	6c 65 20 
  4025c1:	48 89 43 30          	mov    %rax,0x30(%rbx)
  4025c5:	48 b8 63 68 61 72 61 	movabs $0x6574636172616863,%rax
  4025cc:	63 74 65 
  4025cf:	48 89 43 38          	mov    %rax,0x38(%rbx)
  4025d3:	66 c7 43 40 72 2e    	movw   $0x2e72,0x40(%rbx)
  4025d9:	c6 43 42 00          	movb   $0x0,0x42(%rbx)
  4025dd:	89 ef                	mov    %ebp,%edi
  4025df:	e8 ac e6 ff ff       	callq  400c90 <close@plt>
  4025e4:	b8 ff ff ff ff       	mov    $0xffffffff,%eax
  4025e9:	e9 c2 03 00 00       	jmpq   4029b0 <submitr+0x709>
  4025ee:	4d 89 e1             	mov    %r12,%r9
  4025f1:	4c 8d 84 24 20 40 00 	lea    0x4020(%rsp),%r8
  4025f8:	00 
  4025f9:	4c 89 f9             	mov    %r15,%rcx
  4025fc:	4c 89 f2             	mov    %r14,%rdx
  4025ff:	be d8 36 40 00       	mov    $0x4036d8,%esi
  402604:	48 8d bc 24 20 60 00 	lea    0x6020(%rsp),%rdi
  40260b:	00 
  40260c:	b8 00 00 00 00       	mov    $0x0,%eax
  402611:	e8 9a e7 ff ff       	callq  400db0 <sprintf@plt>
  402616:	48 8d bc 24 20 60 00 	lea    0x6020(%rsp),%rdi
  40261d:	00 
  40261e:	b8 00 00 00 00       	mov    $0x0,%eax
  402623:	48 c7 c1 ff ff ff ff 	mov    $0xffffffffffffffff,%rcx
  40262a:	f2 ae                	repnz scas %es:(%rdi),%al
  40262c:	48 f7 d1             	not    %rcx
  40262f:	48 8d 51 ff          	lea    -0x1(%rcx),%rdx
  402633:	48 8d b4 24 20 60 00 	lea    0x6020(%rsp),%rsi
  40263a:	00 
  40263b:	89 ef                	mov    %ebp,%edi
  40263d:	e8 ff fa ff ff       	callq  402141 <rio_writen>
  402642:	48 85 c0             	test   %rax,%rax
  402645:	79 6e                	jns    4026b5 <submitr+0x40e>
  402647:	48 b8 45 72 72 6f 72 	movabs $0x43203a726f727245,%rax
  40264e:	3a 20 43 
  402651:	48 89 03             	mov    %rax,(%rbx)
  402654:	48 b8 6c 69 65 6e 74 	movabs $0x6e7520746e65696c,%rax
  40265b:	20 75 6e 
  40265e:	48 89 43 08          	mov    %rax,0x8(%rbx)
  402662:	48 b8 61 62 6c 65 20 	movabs $0x206f7420656c6261,%rax
  402669:	74 6f 20 
  40266c:	48 89 43 10          	mov    %rax,0x10(%rbx)
  402670:	48 b8 77 72 69 74 65 	movabs $0x6f74206574697277,%rax
  402677:	20 74 6f 
  40267a:	48 89 43 18          	mov    %rax,0x18(%rbx)
  40267e:	48 b8 20 74 68 65 20 	movabs $0x7365722065687420,%rax
  402685:	72 65 73 
  402688:	48 89 43 20          	mov    %rax,0x20(%rbx)
  40268c:	48 b8 75 6c 74 20 73 	movabs $0x7672657320746c75,%rax
  402693:	65 72 76 
  402696:	48 89 43 28          	mov    %rax,0x28(%rbx)
  40269a:	66 c7 43 30 65 72    	movw   $0x7265,0x30(%rbx)
  4026a0:	c6 43 32 00          	movb   $0x0,0x32(%rbx)
  4026a4:	89 ef                	mov    %ebp,%edi
  4026a6:	e8 e5 e5 ff ff       	callq  400c90 <close@plt>
  4026ab:	b8 ff ff ff ff       	mov    $0xffffffff,%eax
  4026b0:	e9 fb 02 00 00       	jmpq   4029b0 <submitr+0x709>
  4026b5:	89 ee                	mov    %ebp,%esi
  4026b7:	48 8d bc 24 20 80 00 	lea    0x8020(%rsp),%rdi
  4026be:	00 
  4026bf:	e8 6c f9 ff ff       	callq  402030 <rio_readinitb>
  4026c4:	ba 00 20 00 00       	mov    $0x2000,%edx
  4026c9:	48 8d b4 24 20 60 00 	lea    0x6020(%rsp),%rsi
  4026d0:	00 
  4026d1:	48 8d bc 24 20 80 00 	lea    0x8020(%rsp),%rdi
  4026d8:	00 
  4026d9:	e8 46 fb ff ff       	callq  402224 <rio_readlineb>
  4026de:	48 85 c0             	test   %rax,%rax
  4026e1:	7f 7d                	jg     402760 <submitr+0x4b9>
  4026e3:	48 b8 45 72 72 6f 72 	movabs $0x43203a726f727245,%rax
  4026ea:	3a 20 43 
  4026ed:	48 89 03             	mov    %rax,(%rbx)
  4026f0:	48 b8 6c 69 65 6e 74 	movabs $0x6e7520746e65696c,%rax
  4026f7:	20 75 6e 
  4026fa:	48 89 43 08          	mov    %rax,0x8(%rbx)
  4026fe:	48 b8 61 62 6c 65 20 	movabs $0x206f7420656c6261,%rax
  402705:	74 6f 20 
  402708:	48 89 43 10          	mov    %rax,0x10(%rbx)
  40270c:	48 b8 72 65 61 64 20 	movabs $0x7269662064616572,%rax
  402713:	66 69 72 
  402716:	48 89 43 18          	mov    %rax,0x18(%rbx)
  40271a:	48 b8 73 74 20 68 65 	movabs $0x6564616568207473,%rax
  402721:	61 64 65 
  402724:	48 89 43 20          	mov    %rax,0x20(%rbx)
  402728:	48 b8 72 20 66 72 6f 	movabs $0x72206d6f72662072,%rax
  40272f:	6d 20 72 
  402732:	48 89 43 28          	mov    %rax,0x28(%rbx)
  402736:	48 b8 65 73 75 6c 74 	movabs $0x657320746c757365,%rax
  40273d:	20 73 65 
  402740:	48 89 43 30          	mov    %rax,0x30(%rbx)
  402744:	c7 43 38 72 76 65 72 	movl   $0x72657672,0x38(%rbx)
  40274b:	c6 43 3c 00          	movb   $0x0,0x3c(%rbx)
  40274f:	89 ef                	mov    %ebp,%edi
  402751:	e8 3a e5 ff ff       	callq  400c90 <close@plt>
  402756:	b8 ff ff ff ff       	mov    $0xffffffff,%eax
  40275b:	e9 50 02 00 00       	jmpq   4029b0 <submitr+0x709>
  402760:	4c 8d 44 24 10       	lea    0x10(%rsp),%r8
  402765:	48 8d 8c 24 1c 20 00 	lea    0x201c(%rsp),%rcx
  40276c:	00 
  40276d:	48 8d 94 24 20 20 00 	lea    0x2020(%rsp),%rdx
  402774:	00 
  402775:	be 4f 37 40 00       	mov    $0x40374f,%esi
  40277a:	48 8d bc 24 20 60 00 	lea    0x6020(%rsp),%rdi
  402781:	00 
  402782:	b8 00 00 00 00       	mov    $0x0,%eax
  402787:	e8 b4 e5 ff ff       	callq  400d40 <__isoc99_sscanf@plt>
  40278c:	e9 98 00 00 00       	jmpq   402829 <submitr+0x582>
  402791:	ba 00 20 00 00       	mov    $0x2000,%edx
  402796:	48 8d b4 24 20 60 00 	lea    0x6020(%rsp),%rsi
  40279d:	00 
  40279e:	48 8d bc 24 20 80 00 	lea    0x8020(%rsp),%rdi
  4027a5:	00 
  4027a6:	e8 79 fa ff ff       	callq  402224 <rio_readlineb>
  4027ab:	48 85 c0             	test   %rax,%rax
  4027ae:	7f 79                	jg     402829 <submitr+0x582>
  4027b0:	48 b8 45 72 72 6f 72 	movabs $0x43203a726f727245,%rax
  4027b7:	3a 20 43 
  4027ba:	48 89 03             	mov    %rax,(%rbx)
  4027bd:	48 b8 6c 69 65 6e 74 	movabs $0x6e7520746e65696c,%rax
  4027c4:	20 75 6e 
  4027c7:	48 89 43 08          	mov    %rax,0x8(%rbx)
  4027cb:	48 b8 61 62 6c 65 20 	movabs $0x206f7420656c6261,%rax
  4027d2:	74 6f 20 
  4027d5:	48 89 43 10          	mov    %rax,0x10(%rbx)
  4027d9:	48 b8 72 65 61 64 20 	movabs $0x6165682064616572,%rax
  4027e0:	68 65 61 
  4027e3:	48 89 43 18          	mov    %rax,0x18(%rbx)
  4027e7:	48 b8 64 65 72 73 20 	movabs $0x6f72662073726564,%rax
  4027ee:	66 72 6f 
  4027f1:	48 89 43 20          	mov    %rax,0x20(%rbx)
  4027f5:	48 b8 6d 20 74 68 65 	movabs $0x657220656874206d,%rax
  4027fc:	20 72 65 
  4027ff:	48 89 43 28          	mov    %rax,0x28(%rbx)
  402803:	48 b8 73 75 6c 74 20 	movabs $0x72657320746c7573,%rax
  40280a:	73 65 72 
  40280d:	48 89 43 30          	mov    %rax,0x30(%rbx)
  402811:	c7 43 38 76 65 72 00 	movl   $0x726576,0x38(%rbx)
  402818:	89 ef                	mov    %ebp,%edi
  40281a:	e8 71 e4 ff ff       	callq  400c90 <close@plt>
  40281f:	b8 ff ff ff ff       	mov    $0xffffffff,%eax
  402824:	e9 87 01 00 00       	jmpq   4029b0 <submitr+0x709>
  402829:	0f b6 84 24 20 60 00 	movzbl 0x6020(%rsp),%eax
  402830:	00 
  402831:	83 e8 0d             	sub    $0xd,%eax
  402834:	75 15                	jne    40284b <submitr+0x5a4>
  402836:	0f b6 84 24 21 60 00 	movzbl 0x6021(%rsp),%eax
  40283d:	00 
  40283e:	83 e8 0a             	sub    $0xa,%eax
  402841:	75 08                	jne    40284b <submitr+0x5a4>
  402843:	0f b6 84 24 22 60 00 	movzbl 0x6022(%rsp),%eax
  40284a:	00 
  40284b:	85 c0                	test   %eax,%eax
  40284d:	0f 85 3e ff ff ff    	jne    402791 <submitr+0x4ea>
  402853:	ba 00 20 00 00       	mov    $0x2000,%edx
  402858:	48 8d b4 24 20 60 00 	lea    0x6020(%rsp),%rsi
  40285f:	00 
  402860:	48 8d bc 24 20 80 00 	lea    0x8020(%rsp),%rdi
  402867:	00 
  402868:	e8 b7 f9 ff ff       	callq  402224 <rio_readlineb>
  40286d:	48 85 c0             	test   %rax,%rax
  402870:	0f 8f 83 00 00 00    	jg     4028f9 <submitr+0x652>
  402876:	48 b8 45 72 72 6f 72 	movabs $0x43203a726f727245,%rax
  40287d:	3a 20 43 
  402880:	48 89 03             	mov    %rax,(%rbx)
  402883:	48 b8 6c 69 65 6e 74 	movabs $0x6e7520746e65696c,%rax
  40288a:	20 75 6e 
  40288d:	48 89 43 08          	mov    %rax,0x8(%rbx)
  402891:	48 b8 61 62 6c 65 20 	movabs $0x206f7420656c6261,%rax
  402898:	74 6f 20 
  40289b:	48 89 43 10          	mov    %rax,0x10(%rbx)
  40289f:	48 b8 72 65 61 64 20 	movabs $0x6174732064616572,%rax
  4028a6:	73 74 61 
  4028a9:	48 89 43 18          	mov    %rax,0x18(%rbx)
  4028ad:	48 b8 74 75 73 20 6d 	movabs $0x7373656d20737574,%rax
  4028b4:	65 73 73 
  4028b7:	48 89 43 20          	mov    %rax,0x20(%rbx)
  4028bb:	48 b8 61 67 65 20 66 	movabs $0x6d6f726620656761,%rax
  4028c2:	72 6f 6d 
  4028c5:	48 89 43 28          	mov    %rax,0x28(%rbx)
  4028c9:	48 b8 20 72 65 73 75 	movabs $0x20746c7573657220,%rax
  4028d0:	6c 74 20 
  4028d3:	48 89 43 30          	mov    %rax,0x30(%rbx)
  4028d7:	c7 43 38 73 65 72 76 	movl   $0x76726573,0x38(%rbx)
  4028de:	66 c7 43 3c 65 72    	movw   $0x7265,0x3c(%rbx)
  4028e4:	c6 43 3e 00          	movb   $0x0,0x3e(%rbx)
  4028e8:	89 ef                	mov    %ebp,%edi
  4028ea:	e8 a1 e3 ff ff       	callq  400c90 <close@plt>
  4028ef:	b8 ff ff ff ff       	mov    $0xffffffff,%eax
  4028f4:	e9 b7 00 00 00       	jmpq   4029b0 <submitr+0x709>
  4028f9:	8b 94 24 1c 20 00 00 	mov    0x201c(%rsp),%edx
  402900:	81 fa c8 00 00 00    	cmp    $0xc8,%edx
  402906:	74 28                	je     402930 <submitr+0x689>
  402908:	48 8d 4c 24 10       	lea    0x10(%rsp),%rcx
  40290d:	be 18 37 40 00       	mov    $0x403718,%esi
  402912:	48 89 df             	mov    %rbx,%rdi
  402915:	b8 00 00 00 00       	mov    $0x0,%eax
  40291a:	e8 91 e4 ff ff       	callq  400db0 <sprintf@plt>
  40291f:	89 ef                	mov    %ebp,%edi
  402921:	e8 6a e3 ff ff       	callq  400c90 <close@plt>
  402926:	b8 ff ff ff ff       	mov    $0xffffffff,%eax
  40292b:	e9 80 00 00 00       	jmpq   4029b0 <submitr+0x709>
  402930:	48 8d b4 24 20 60 00 	lea    0x6020(%rsp),%rsi
  402937:	00 
  402938:	48 89 df             	mov    %rbx,%rdi
  40293b:	e8 e0 e2 ff ff       	callq  400c20 <strcpy@plt>
  402940:	89 ef                	mov    %ebp,%edi
  402942:	e8 49 e3 ff ff       	callq  400c90 <close@plt>
  402947:	0f b6 03             	movzbl (%rbx),%eax
  40294a:	83 e8 4f             	sub    $0x4f,%eax
  40294d:	75 18                	jne    402967 <submitr+0x6c0>
  40294f:	0f b6 53 01          	movzbl 0x1(%rbx),%edx
  402953:	83 ea 4b             	sub    $0x4b,%edx
  402956:	75 11                	jne    402969 <submitr+0x6c2>
  402958:	0f b6 53 02          	movzbl 0x2(%rbx),%edx
  40295c:	83 ea 0a             	sub    $0xa,%edx
  40295f:	75 08                	jne    402969 <submitr+0x6c2>
  402961:	0f b6 53 03          	movzbl 0x3(%rbx),%edx
  402965:	eb 02                	jmp    402969 <submitr+0x6c2>
  402967:	89 c2                	mov    %eax,%edx
  402969:	85 d2                	test   %edx,%edx
  40296b:	74 30                	je     40299d <submitr+0x6f6>
  40296d:	bf 60 37 40 00       	mov    $0x403760,%edi
  402972:	b9 05 00 00 00       	mov    $0x5,%ecx
  402977:	48 89 de             	mov    %rbx,%rsi
  40297a:	f3 a6                	repz cmpsb %es:(%rdi),%ds:(%rsi)
  40297c:	0f 97 c1             	seta   %cl
  40297f:	0f 92 c2             	setb   %dl
  402982:	38 d1                	cmp    %dl,%cl
  402984:	74 1e                	je     4029a4 <submitr+0x6fd>
  402986:	85 c0                	test   %eax,%eax
  402988:	75 0d                	jne    402997 <submitr+0x6f0>
  40298a:	0f b6 43 01          	movzbl 0x1(%rbx),%eax
  40298e:	83 e8 4b             	sub    $0x4b,%eax
  402991:	75 04                	jne    402997 <submitr+0x6f0>
  402993:	0f b6 43 02          	movzbl 0x2(%rbx),%eax
  402997:	85 c0                	test   %eax,%eax
  402999:	75 10                	jne    4029ab <submitr+0x704>
  40299b:	eb 13                	jmp    4029b0 <submitr+0x709>
  40299d:	b8 00 00 00 00       	mov    $0x0,%eax
  4029a2:	eb 0c                	jmp    4029b0 <submitr+0x709>
  4029a4:	b8 00 00 00 00       	mov    $0x0,%eax
  4029a9:	eb 05                	jmp    4029b0 <submitr+0x709>
  4029ab:	b8 ff ff ff ff       	mov    $0xffffffff,%eax
  4029b0:	48 81 c4 48 a0 00 00 	add    $0xa048,%rsp
  4029b7:	5b                   	pop    %rbx
  4029b8:	5d                   	pop    %rbp
  4029b9:	41 5c                	pop    %r12
  4029bb:	41 5d                	pop    %r13
  4029bd:	41 5e                	pop    %r14
  4029bf:	41 5f                	pop    %r15
  4029c1:	c3                   	retq   

00000000004029c2 <init_timeout>:
  4029c2:	53                   	push   %rbx
  4029c3:	89 fb                	mov    %edi,%ebx
  4029c5:	85 ff                	test   %edi,%edi
  4029c7:	74 1f                	je     4029e8 <init_timeout+0x26>
  4029c9:	85 ff                	test   %edi,%edi
  4029cb:	79 05                	jns    4029d2 <init_timeout+0x10>
  4029cd:	bb 00 00 00 00       	mov    $0x0,%ebx
  4029d2:	be 42 20 40 00       	mov    $0x402042,%esi
  4029d7:	bf 0e 00 00 00       	mov    $0xe,%edi
  4029dc:	e8 df e2 ff ff       	callq  400cc0 <signal@plt>
  4029e1:	89 df                	mov    %ebx,%edi
  4029e3:	e8 98 e2 ff ff       	callq  400c80 <alarm@plt>
  4029e8:	5b                   	pop    %rbx
  4029e9:	c3                   	retq   

00000000004029ea <init_driver>:
  4029ea:	55                   	push   %rbp
  4029eb:	53                   	push   %rbx
  4029ec:	48 83 ec 18          	sub    $0x18,%rsp
  4029f0:	48 89 fd             	mov    %rdi,%rbp
  4029f3:	be 01 00 00 00       	mov    $0x1,%esi
  4029f8:	bf 0d 00 00 00       	mov    $0xd,%edi
  4029fd:	e8 be e2 ff ff       	callq  400cc0 <signal@plt>
  402a02:	be 01 00 00 00       	mov    $0x1,%esi
  402a07:	bf 1d 00 00 00       	mov    $0x1d,%edi
  402a0c:	e8 af e2 ff ff       	callq  400cc0 <signal@plt>
  402a11:	be 01 00 00 00       	mov    $0x1,%esi
  402a16:	bf 1d 00 00 00       	mov    $0x1d,%edi
  402a1b:	e8 a0 e2 ff ff       	callq  400cc0 <signal@plt>
  402a20:	ba 00 00 00 00       	mov    $0x0,%edx
  402a25:	be 01 00 00 00       	mov    $0x1,%esi
  402a2a:	bf 02 00 00 00       	mov    $0x2,%edi
  402a2f:	e8 ac e3 ff ff       	callq  400de0 <socket@plt>
  402a34:	89 c3                	mov    %eax,%ebx
  402a36:	85 c0                	test   %eax,%eax
  402a38:	79 4f                	jns    402a89 <init_driver+0x9f>
  402a3a:	48 b8 45 72 72 6f 72 	movabs $0x43203a726f727245,%rax
  402a41:	3a 20 43 
  402a44:	48 89 45 00          	mov    %rax,0x0(%rbp)
  402a48:	48 b8 6c 69 65 6e 74 	movabs $0x6e7520746e65696c,%rax
  402a4f:	20 75 6e 
  402a52:	48 89 45 08          	mov    %rax,0x8(%rbp)
  402a56:	48 b8 61 62 6c 65 20 	movabs $0x206f7420656c6261,%rax
  402a5d:	74 6f 20 
  402a60:	48 89 45 10          	mov    %rax,0x10(%rbp)
  402a64:	48 b8 63 72 65 61 74 	movabs $0x7320657461657263,%rax
  402a6b:	65 20 73 
  402a6e:	48 89 45 18          	mov    %rax,0x18(%rbp)
  402a72:	c7 45 20 6f 63 6b 65 	movl   $0x656b636f,0x20(%rbp)
  402a79:	66 c7 45 24 74 00    	movw   $0x74,0x24(%rbp)
  402a7f:	b8 ff ff ff ff       	mov    $0xffffffff,%eax
  402a84:	e9 23 01 00 00       	jmpq   402bac <init_driver+0x1c2>
  402a89:	bf 1f 30 40 00       	mov    $0x40301f,%edi
  402a8e:	e8 3d e2 ff ff       	callq  400cd0 <gethostbyname@plt>
  402a93:	48 85 c0             	test   %rax,%rax
  402a96:	75 68                	jne    402b00 <init_driver+0x116>
  402a98:	48 b8 45 72 72 6f 72 	movabs $0x44203a726f727245,%rax
  402a9f:	3a 20 44 
  402aa2:	48 89 45 00          	mov    %rax,0x0(%rbp)
  402aa6:	48 b8 4e 53 20 69 73 	movabs $0x6e7520736920534e,%rax
  402aad:	20 75 6e 
  402ab0:	48 89 45 08          	mov    %rax,0x8(%rbp)
  402ab4:	48 b8 61 62 6c 65 20 	movabs $0x206f7420656c6261,%rax
  402abb:	74 6f 20 
  402abe:	48 89 45 10          	mov    %rax,0x10(%rbp)
  402ac2:	48 b8 72 65 73 6f 6c 	movabs $0x2065766c6f736572,%rax
  402ac9:	76 65 20 
  402acc:	48 89 45 18          	mov    %rax,0x18(%rbp)
  402ad0:	48 b8 73 65 72 76 65 	movabs $0x6120726576726573,%rax
  402ad7:	72 20 61 
  402ada:	48 89 45 20          	mov    %rax,0x20(%rbp)
  402ade:	c7 45 28 64 64 72 65 	movl   $0x65726464,0x28(%rbp)
  402ae5:	66 c7 45 2c 73 73    	movw   $0x7373,0x2c(%rbp)
  402aeb:	c6 45 2e 00          	movb   $0x0,0x2e(%rbp)
  402aef:	89 df                	mov    %ebx,%edi
  402af1:	e8 9a e1 ff ff       	callq  400c90 <close@plt>
  402af6:	b8 ff ff ff ff       	mov    $0xffffffff,%eax
  402afb:	e9 ac 00 00 00       	jmpq   402bac <init_driver+0x1c2>
  402b00:	48 c7 04 24 00 00 00 	movq   $0x0,(%rsp)
  402b07:	00 
  402b08:	48 c7 44 24 08 00 00 	movq   $0x0,0x8(%rsp)
  402b0f:	00 00 
  402b11:	66 c7 04 24 02 00    	movw   $0x2,(%rsp)
  402b17:	48 8b 48 18          	mov    0x18(%rax),%rcx
  402b1b:	48 63 50 14          	movslq 0x14(%rax),%rdx
  402b1f:	48 8d 74 24 04       	lea    0x4(%rsp),%rsi
  402b24:	48 8b 39             	mov    (%rcx),%rdi
  402b27:	e8 34 e2 ff ff       	callq  400d60 <bcopy@plt>
  402b2c:	66 c7 44 24 02 47 26 	movw   $0x2647,0x2(%rsp)
  402b33:	ba 10 00 00 00       	mov    $0x10,%edx
  402b38:	48 89 e6             	mov    %rsp,%rsi
  402b3b:	89 df                	mov    %ebx,%edi
  402b3d:	e8 8e e2 ff ff       	callq  400dd0 <connect@plt>
  402b42:	85 c0                	test   %eax,%eax
  402b44:	79 50                	jns    402b96 <init_driver+0x1ac>
  402b46:	48 b8 45 72 72 6f 72 	movabs $0x55203a726f727245,%rax
  402b4d:	3a 20 55 
  402b50:	48 89 45 00          	mov    %rax,0x0(%rbp)
  402b54:	48 b8 6e 61 62 6c 65 	movabs $0x6f7420656c62616e,%rax
  402b5b:	20 74 6f 
  402b5e:	48 89 45 08          	mov    %rax,0x8(%rbp)
  402b62:	48 b8 20 63 6f 6e 6e 	movabs $0x7463656e6e6f6320,%rax
  402b69:	65 63 74 
  402b6c:	48 89 45 10          	mov    %rax,0x10(%rbp)
  402b70:	48 b8 20 74 6f 20 73 	movabs $0x76726573206f7420,%rax
  402b77:	65 72 76 
  402b7a:	48 89 45 18          	mov    %rax,0x18(%rbp)
  402b7e:	66 c7 45 20 65 72    	movw   $0x7265,0x20(%rbp)
  402b84:	c6 45 22 00          	movb   $0x0,0x22(%rbp)
  402b88:	89 df                	mov    %ebx,%edi
  402b8a:	e8 01 e1 ff ff       	callq  400c90 <close@plt>
  402b8f:	b8 ff ff ff ff       	mov    $0xffffffff,%eax
  402b94:	eb 16                	jmp    402bac <init_driver+0x1c2>
  402b96:	89 df                	mov    %ebx,%edi
  402b98:	e8 f3 e0 ff ff       	callq  400c90 <close@plt>
  402b9d:	66 c7 45 00 4f 4b    	movw   $0x4b4f,0x0(%rbp)
  402ba3:	c6 45 02 00          	movb   $0x0,0x2(%rbp)
  402ba7:	b8 00 00 00 00       	mov    $0x0,%eax
  402bac:	48 83 c4 18          	add    $0x18,%rsp
  402bb0:	5b                   	pop    %rbx
  402bb1:	5d                   	pop    %rbp
  402bb2:	c3                   	retq   

0000000000402bb3 <driver_post>:
  402bb3:	53                   	push   %rbx
  402bb4:	48 83 ec 10          	sub    $0x10,%rsp
  402bb8:	4c 89 cb             	mov    %r9,%rbx
  402bbb:	45 85 c0             	test   %r8d,%r8d
  402bbe:	74 22                	je     402be2 <driver_post+0x2f>
  402bc0:	48 89 ce             	mov    %rcx,%rsi
  402bc3:	bf 65 37 40 00       	mov    $0x403765,%edi
  402bc8:	b8 00 00 00 00       	mov    $0x0,%eax
  402bcd:	e8 8e e0 ff ff       	callq  400c60 <printf@plt>
  402bd2:	66 c7 03 4f 4b       	movw   $0x4b4f,(%rbx)
  402bd7:	c6 43 02 00          	movb   $0x0,0x2(%rbx)
  402bdb:	b8 00 00 00 00       	mov    $0x0,%eax
  402be0:	eb 39                	jmp    402c1b <driver_post+0x68>
  402be2:	48 85 ff             	test   %rdi,%rdi
  402be5:	74 26                	je     402c0d <driver_post+0x5a>
  402be7:	80 3f 00             	cmpb   $0x0,(%rdi)
  402bea:	74 21                	je     402c0d <driver_post+0x5a>
  402bec:	4c 89 0c 24          	mov    %r9,(%rsp)
  402bf0:	49 89 c9             	mov    %rcx,%r9
  402bf3:	49 89 d0             	mov    %rdx,%r8
  402bf6:	48 89 f9             	mov    %rdi,%rcx
  402bf9:	48 89 f2             	mov    %rsi,%rdx
  402bfc:	be 26 47 00 00       	mov    $0x4726,%esi
  402c01:	bf 1f 30 40 00       	mov    $0x40301f,%edi
  402c06:	e8 9c f6 ff ff       	callq  4022a7 <submitr>
  402c0b:	eb 0e                	jmp    402c1b <driver_post+0x68>
  402c0d:	66 c7 03 4f 4b       	movw   $0x4b4f,(%rbx)
  402c12:	c6 43 02 00          	movb   $0x0,0x2(%rbx)
  402c16:	b8 00 00 00 00       	mov    $0x0,%eax
  402c1b:	48 83 c4 10          	add    $0x10,%rsp
  402c1f:	5b                   	pop    %rbx
  402c20:	c3                   	retq   

0000000000402c21 <check>:
  402c21:	89 f8                	mov    %edi,%eax
  402c23:	c1 e8 1c             	shr    $0x1c,%eax
  402c26:	85 c0                	test   %eax,%eax
  402c28:	74 1d                	je     402c47 <check+0x26>
  402c2a:	b9 00 00 00 00       	mov    $0x0,%ecx
  402c2f:	eb 0b                	jmp    402c3c <check+0x1b>
  402c31:	89 f8                	mov    %edi,%eax
  402c33:	d3 e8                	shr    %cl,%eax
  402c35:	3c 0a                	cmp    $0xa,%al
  402c37:	74 14                	je     402c4d <check+0x2c>
  402c39:	83 c1 08             	add    $0x8,%ecx
  402c3c:	83 f9 1f             	cmp    $0x1f,%ecx
  402c3f:	7e f0                	jle    402c31 <check+0x10>
  402c41:	b8 01 00 00 00       	mov    $0x1,%eax
  402c46:	c3                   	retq   
  402c47:	b8 00 00 00 00       	mov    $0x0,%eax
  402c4c:	c3                   	retq   
  402c4d:	b8 00 00 00 00       	mov    $0x0,%eax
  402c52:	c3                   	retq   

0000000000402c53 <gencookie>:
  402c53:	53                   	push   %rbx
  402c54:	83 c7 01             	add    $0x1,%edi
  402c57:	e8 a4 df ff ff       	callq  400c00 <srandom@plt>
  402c5c:	e8 bf e0 ff ff       	callq  400d20 <random@plt>
  402c61:	89 c3                	mov    %eax,%ebx
  402c63:	89 c7                	mov    %eax,%edi
  402c65:	e8 b7 ff ff ff       	callq  402c21 <check>
  402c6a:	85 c0                	test   %eax,%eax
  402c6c:	74 ee                	je     402c5c <gencookie+0x9>
  402c6e:	89 d8                	mov    %ebx,%eax
  402c70:	5b                   	pop    %rbx
  402c71:	c3                   	retq   
  402c72:	66 2e 0f 1f 84 00 00 	nopw   %cs:0x0(%rax,%rax,1)
  402c79:	00 00 00 
  402c7c:	0f 1f 40 00          	nopl   0x0(%rax)

0000000000402c80 <__libc_csu_init>:
  402c80:	41 57                	push   %r15
  402c82:	41 89 ff             	mov    %edi,%r15d
  402c85:	41 56                	push   %r14
  402c87:	49 89 f6             	mov    %rsi,%r14
  402c8a:	41 55                	push   %r13
  402c8c:	49 89 d5             	mov    %rdx,%r13
  402c8f:	41 54                	push   %r12
  402c91:	4c 8d 25 78 21 20 00 	lea    0x202178(%rip),%r12        # 604e10 <__frame_dummy_init_array_entry>
  402c98:	55                   	push   %rbp
  402c99:	48 8d 2d 78 21 20 00 	lea    0x202178(%rip),%rbp        # 604e18 <__init_array_end>
  402ca0:	53                   	push   %rbx
  402ca1:	4c 29 e5             	sub    %r12,%rbp
  402ca4:	31 db                	xor    %ebx,%ebx
  402ca6:	48 c1 fd 03          	sar    $0x3,%rbp
  402caa:	48 83 ec 08          	sub    $0x8,%rsp
  402cae:	e8 fd de ff ff       	callq  400bb0 <_init>
  402cb3:	48 85 ed             	test   %rbp,%rbp
  402cb6:	74 1e                	je     402cd6 <__libc_csu_init+0x56>
  402cb8:	0f 1f 84 00 00 00 00 	nopl   0x0(%rax,%rax,1)
  402cbf:	00 
  402cc0:	4c 89 ea             	mov    %r13,%rdx
  402cc3:	4c 89 f6             	mov    %r14,%rsi
  402cc6:	44 89 ff             	mov    %r15d,%edi
  402cc9:	41 ff 14 dc          	callq  *(%r12,%rbx,8)
  402ccd:	48 83 c3 01          	add    $0x1,%rbx
  402cd1:	48 39 eb             	cmp    %rbp,%rbx
  402cd4:	75 ea                	jne    402cc0 <__libc_csu_init+0x40>
  402cd6:	48 83 c4 08          	add    $0x8,%rsp
  402cda:	5b                   	pop    %rbx
  402cdb:	5d                   	pop    %rbp
  402cdc:	41 5c                	pop    %r12
  402cde:	41 5d                	pop    %r13
  402ce0:	41 5e                	pop    %r14
  402ce2:	41 5f                	pop    %r15
  402ce4:	c3                   	retq   
  402ce5:	90                   	nop
  402ce6:	66 2e 0f 1f 84 00 00 	nopw   %cs:0x0(%rax,%rax,1)
  402ced:	00 00 00 

0000000000402cf0 <__libc_csu_fini>:
  402cf0:	f3 c3                	repz retq 

Disassembly of section .fini:

0000000000402cf4 <_fini>:
  402cf4:	48 83 ec 08          	sub    $0x8,%rsp
  402cf8:	48 83 c4 08          	add    $0x8,%rsp
  402cfc:	c3                   	retq   
